(dp0
S'EE'
p1
(dp2
S'm_ll'
p3
(F1.13949152115721
cnumpy.core.multiarray
scalar
p4
(cnumpy
dtype
p5
(S'f8'
p6
I0
I1
tp7
Rp8
(I3
S'<'
p9
NNNI-1
I-1
I0
tp10
bS'\xearrmzv\xb2?'
p11
tp12
Rp13
tp14
sS'eta1'
p15
(F1.139491233462092
g4
(g8
S'\x14\xabKgzv\xb2?'
p16
tp17
Rp18
tp19
sS'eta2'
p20
(F1.1394912183931365
g4
(g8
S'>\x03\x1bnzv\xb2?'
p21
tp22
Rp23
tp24
sS'ht'
p25
(F1.139492012896055
g4
(g8
S'\xeca\x98lzv\xb2?'
p26
tp27
Rp28
tp29
sS'n_vtx'
p30
(F1.1394910463825814
g4
(g8
S'\\~\rrzv\xb2?'
p31
tp32
Rp33
tp34
sS'met'
p35
(F1.139491150508988
g4
(g8
S'y\x10\xe5^zv\xb2?'
p36
tp37
Rp38
tp39
sS'phi2'
p40
(F1.1394912044214742
g4
(g8
S'\xad\xf9\xa2hzv\xb2?'
p41
tp42
Rp43
tp44
sS'phi1'
p45
(F1.139491198156436
g4
(g8
S'"ZMizv\xb2?'
p46
tp47
Rp48
tp49
sS'nElectrons'
p50
(F1.1394898207299011
g4
(g8
S'b\xf9\xce0zv\xb2?'
p51
tp52
Rp53
tp54
sS'n_jets'
p55
(F1.139491500250793
g4
(g8
S'C\x82\xfc[zv\xb2?'
p56
tp57
Rp58
tp59
sS'nMuons'
p60
(F1.1394898207299011
g4
(g8
S'b\xf9\xce0zv\xb2?'
p61
tp62
Rp63
tp64
sS'pt2'
p65
(F1.13949114450021
g4
(g8
S'\xb0\xff\xf7dzv\xb2?'
p66
tp67
Rp68
tp69
sS'pt1'
p70
(F1.1394911925938007
g4
(g8
S'\x1c\x85\x0elzv\xb2?'
p71
tp72
Rp73
tp74
sS'n_photons'
p75
(F1.139487702824507
g4
(g8
S'Kc\xb7[zv\xb2?'
p76
tp77
Rp78
tp79
ssS'MM'
p80
(dp81
g3
(F1.2092759139591986
g4
(g8
S'NK\x9e\xc3c\xe5\xa7?'
p82
tp83
Rp84
tp85
sg15
(F1.2092766001055217
g4
(g8
S'.\x0c\xef\xcac\xe5\xa7?'
p86
tp87
Rp88
tp89
sg20
(F1.2092766085168067
g4
(g8
S' \xbb\xc8\xc9c\xe5\xa7?'
p90
tp91
Rp92
tp93
sg25
(F1.20927538580921
g4
(g8
S'\xb9W\xfa\xbac\xe5\xa7?'
p94
tp95
Rp96
tp97
sg30
(F1.209276626146565
g4
(g8
S'\xa3\x8e\x0c\xcbc\xe5\xa7?'
p98
tp99
Rp100
tp101
sg35
(F1.2092765420482445
g4
(g8
S']!\x9f\xcac\xe5\xa7?'
p102
tp103
Rp104
tp105
sg40
(F1.2092766097779286
g4
(g8
S'\x07\x81^\xc9c\xe5\xa7?'
p106
tp107
Rp108
tp109
sg45
(F1.2092766075518502
g4
(g8
S'k\x1a\xe9\xcac\xe5\xa7?'
p110
tp111
Rp112
tp113
sg50
(F1.2092765124501161
g4
(g8
S'M\x0f\xbe\xd2c\xe5\xa7?'
p114
tp115
Rp116
tp117
sg55
(F1.2092758785191322
g4
(g8
S'b\xbb\xb7\xc9c\xe5\xa7?'
p118
tp119
Rp120
tp121
sg60
(F1.2092765124501161
g4
(g8
S'M\x0f\xbe\xd2c\xe5\xa7?'
p122
tp123
Rp124
tp125
sg65
(F1.2092765815824236
g4
(g8
S'P\x00\xb4\xc5c\xe5\xa7?'
p126
tp127
Rp128
tp129
sg70
(F1.2092766355066054
g4
(g8
S'3\xb3?\xc7c\xe5\xa7?'
p130
tp131
Rp132
tp133
sg75
(F1.20927003270677
g4
(g8
S'^\xcb\x97>d\xe5\xa7?'
p134
tp135
Rp136
tp137
ssS'LL'
p138
(dp139
g3
(F1.1874053305889438
g4
(g8
S'V\xab<\x89\x1c\x10\xa4?'
p140
tp141
Rp142
tp143
sg15
(F1.187405292636514
g4
(g8
S'jx\x9c{\x1c\x10\xa4?'
p144
tp145
Rp146
tp147
sg20
(F1.187405266661882
g4
(g8
S'\xfei\x98y\x1c\x10\xa4?'
p148
tp149
Rp150
tp151
sg25
(F1.187404070782906
g4
(g8
S'\x1c\xb6\x85s\x1c\x10\xa4?'
p152
tp153
Rp154
tp155
sg30
(F1.1874047933558745
g4
(g8
S'\xe6\x9d^\x82\x1c\x10\xa4?'
p156
tp157
Rp158
tp159
sg35
(F1.1874052827675183
g4
(g8
S',\xad\xfeu\x1c\x10\xa4?'
p160
tp161
Rp162
tp163
sg40
(F1.1874052741941052
g4
(g8
S'-!\xac{\x1c\x10\xa4?'
p164
tp165
Rp166
tp167
sg45
(F1.187405285882952
g4
(g8
S'd\x91\xa5{\x1c\x10\xa4?'
p168
tp169
Rp170
tp171
sg50
(F1.18740477019241
g4
(g8
S'`N,o\x1c\x10\xa4?'
p172
tp173
Rp174
tp175
sg55
(F1.1874035426732377
g4
(g8
S'\xe8z\x1bj\x1c\x10\xa4?'
p176
tp177
Rp178
tp179
sg60
(F1.18740477019241
g4
(g8
S'aN,o\x1c\x10\xa4?'
p180
tp181
Rp182
tp183
sg65
(F1.187405141244427
g4
(g8
S'\xf0\x84\x8d{\x1c\x10\xa4?'
p184
tp185
Rp186
tp187
sg70
(F1.1874052628092946
g4
(g8
S'\x87S,x\x1c\x10\xa4?'
p188
tp189
Rp190
tp191
sg75
(F1.1874027556581976
g4
(g8
S'#\x89\x94\xcb\x1c\x10\xa4?'
p192
tp193
Rp194
tp195
ss.