(dp0
S'EE'
p1
(dp2
S'm_ll'
p3
(F1.2444911088742003
cnumpy.core.multiarray
scalar
p4
(cnumpy
dtype
p5
(S'f8'
p6
I0
I1
tp7
Rp8
(I3
S'<'
p9
NNNI-1
I-1
I0
tp10
bS'\xd5\n\xbc\xfa\x12\x10\xb2?'
p11
tp12
Rp13
tp14
sS'eta1'
p15
(F1.2444904304889841
g4
(g8
S'\xce\x1a\xde\xfb\x12\x10\xb2?'
p16
tp17
Rp18
tp19
sS'eta2'
p20
(F1.2444904247224036
g4
(g8
S'm\xaa7\xf9\x12\x10\xb2?'
p21
tp22
Rp23
tp24
sS'ht'
p25
(F1.2444913538477234
g4
(g8
S'\xd8N\x1a\xfa\x12\x10\xb2?'
p26
tp27
Rp28
tp29
sS'met'
p30
(F1.2444903875572697
g4
(g8
S'\x7fn\xb2\xf9\x12\x10\xb2?'
p31
tp32
Rp33
tp34
sS'phi2'
p35
(F1.2444904251027822
g4
(g8
S':\xe7%\xfb\x12\x10\xb2?'
p36
tp37
Rp38
tp39
sS'phi1'
p40
(F1.2444904296853245
g4
(g8
S'\xeea`\xfa\x12\x10\xb2?'
p41
tp42
Rp43
tp44
sS'n_jets'
p45
(F1.2444915413038566
g4
(g8
S'7+x\xf8\x12\x10\xb2?'
p46
tp47
Rp48
tp49
sS'pt2'
p50
(F1.244490372327699
g4
(g8
S'\x9f5\xea\xf8\x12\x10\xb2?'
p51
tp52
Rp53
tp54
sS'pt1'
p55
(F1.2444904095346636
g4
(g8
S'\xc7\xf2\xc8\xfa\x12\x10\xb2?'
p56
tp57
Rp58
tp59
sS'n_photons'
p60
(F1.2444898777493272
g4
(g8
S'\x19\xf5\x16\n\x13\x10\xb2?'
p61
tp62
Rp63
tp64
ssS'MM'
p65
(dp66
g3
(F1.2024242489823296
g4
(g8
S"G\x96\xeeG'\x19\xa9?"
p67
tp68
Rp69
tp70
sg15
(F1.2024241744025628
g4
(g8
S"\xbd\xf2wP'\x19\xa9?"
p71
tp72
Rp73
tp74
sg20
(F1.2024241900466521
g4
(g8
S"H\xd3\xf1Q'\x19\xa9?"
p75
tp76
Rp77
tp78
sg25
(F1.2024232809343447
g4
(g8
S"`\xd7zQ'\x19\xa9?"
p79
tp80
Rp81
tp82
sg30
(F1.202424184042155
g4
(g8
S"ceiR'\x19\xa9?"
p83
tp84
Rp85
tp86
sg35
(F1.2024241980152206
g4
(g8
S"\xd2\xbaUQ'\x19\xa9?"
p87
tp88
Rp89
tp90
sg40
(F1.2024241955828088
g4
(g8
S"\xf3\xf8\xb8N'\x19\xa9?"
p91
tp92
Rp93
tp94
sg45
(F1.2024243263372614
g4
(g8
S"a\x1e\x9dN'\x19\xa9?"
p95
tp96
Rp97
tp98
sg50
(F1.2024242027215841
g4
(g8
S"]\xc5\xceK'\x19\xa9?"
p99
tp100
Rp101
tp102
sg55
(F1.202424209732734
g4
(g8
S"\x8f\xe0\xbeO'\x19\xa9?"
p103
tp104
Rp105
tp106
sg60
(F1.2024173405788563
g4
(g8
S"\x19l\x11\xca'\x19\xa9?"
p107
tp108
Rp109
tp110
ssS'LL'
p111
(dp112
g3
(F1.215706551510097
g4
(g8
S'\x03\xae\x8e\xe6\xc3\x9c\xa4?'
p113
tp114
Rp115
tp116
sg15
(F1.2157057289641313
g4
(g8
S'\xbb)*\xe6\xc3\x9c\xa4?'
p117
tp118
Rp119
tp120
sg20
(F1.2157057047013358
g4
(g8
S'\xc1\xb87\xe6\xc3\x9c\xa4?'
p121
tp122
Rp123
tp124
sg25
(F1.2157039413373834
g4
(g8
S'\x1e@=\xd9\xc3\x9c\xa4?'
p125
tp126
Rp127
tp128
sg30
(F1.2157058119039568
g4
(g8
S'\xcd\xb2t\xea\xc3\x9c\xa4?'
p129
tp130
Rp131
tp132
sg35
(F1.2157057606734567
g4
(g8
S'u\x88\xf3\xe5\xc3\x9c\xa4?'
p133
tp134
Rp135
tp136
sg40
(F1.2157057514397052
g4
(g8
S'\xa5\xbc(\xe5\xc3\x9c\xa4?'
p137
tp138
Rp139
tp140
sg45
(F1.2157042024318039
g4
(g8
S'#z\x19\xd4\xc3\x9c\xa4?'
p141
tp142
Rp143
tp144
sg50
(F1.2157056353085123
g4
(g8
S'\xe5}\xb7\xe3\xc3\x9c\xa4?'
p145
tp146
Rp147
tp148
sg55
(F1.215705790451019
g4
(g8
S'\xba\x9eH\xe6\xc3\x9c\xa4?'
p149
tp150
Rp151
tp152
sg60
(F1.2157050420341804
g4
(g8
S'\xde\xd3\x93r\xc4\x9c\xa4?'
p153
tp154
Rp155
tp156
ss.