(dp0
S'CRDY'
p1
(dp2
S'pt1'
p3
(dp4
I0
(dp5
S'erUp'
p6
F0.005856513734414204
sS'value'
p7
F1.0830767576350815
sS'erDown'
p8
F0.005888224359809069
ssI1
(dp9
g6
F0.005907129953811818
sg7
F1.0922623095398047
sg8
F0.005939159162988483
ssI2
(dp10
g6
F0.005853971939652647
sg7
F1.0829252363391857
sg8
F0.0058856831280929
ssI3
(dp11
g6
F0.005393505843951707
sg7
F0.9961146105845134
sg8
F0.0054215465342529745
ssI4
(dp12
g6
F0.005411264343930355
sg7
F0.999503384489572
sg8
F0.0054394076450543505
ssI5
(dp13
g6
F0.005414458241812969
sg7
F1.0004283902315578
sg8
F0.0054427225275317515
ssI6
(dp14
g6
F0.0004730920094035973
sg7
F1.165
sg8
F0.0
ssI7
(dp15
g6
F0.0003299341989657645
sg7
F1.165
sg8
F0.0
ssI8
(dp16
g6
F0.0005732681630938874
sg7
F1.165
sg8
F0.0
ssss.