(dp0
S'CRDY'
p1
(dp2
S'pt1'
p3
(dp4
I0
(dp5
S'erUp'
p6
F0.010708638254345315
sS'value'
p7
F1.0782868629831224
sS'erDown'
p8
F0.010815808508730651
ssI1
(dp9
g6
F0.010752006496453914
sg7
F1.082527549878705
sg8
F0.010859557462720604
ssI2
(dp10
g6
F0.010742813635141957
sg7
F1.0819382049116137
sg8
F0.010850214695679039
ssI3
(dp11
g6
F0.00990369070779984
sg7
F0.9957611311245483
sg8
F0.009998532549080008
ssI4
(dp12
g6
F0.009901816183073842
sg7
F0.9955129088270369
sg8
F0.009996608208193036
ssI5
(dp13
g6
F0.009966395031835051
sg7
F1.0026125865600302
sg8
F0.010062425063446456
ssI6
(dp14
g6
F0.002206976287771445
sg7
F1.165
sg8
F0.0
ssI7
(dp15
g6
F0.0016404009114416862
sg7
F1.165
sg8
F0.0
ssI8
(dp16
g6
F0.002359930981133518
sg7
F1.165
sg8
F0.0
ssss.