(dp0
S'CRDY'
p1
(dp2
S'ht'
p3
(dp4
S'erUp'
p5
F0.005862242513472227
sS'value'
p6
F1.0841368836755196
sS'erDown'
p7
F0.0058939541194722445
ssS'eta1'
p8
(dp9
g5
F0.005859302890820484
sg6
F1.0839911526951693
sg7
F0.005891013837338255
ssS'eta2'
p10
(dp11
g5
F0.00585591280192177
sg6
F1.0827458053187435
sg7
F0.005887642699032192
ssS'pt_g1'
p12
(dp13
g5
F0.005856478644848284
sg6
F1.0829528928436776
sg7
F0.005888212295819262
ssS'phi2'
p14
(dp15
g5
F0.005858945404582094
sg6
F1.0838223377103915
sg7
F0.005890698742355038
ssS'phi1'
p16
(dp17
g5
F0.005858945404582094
sg6
F1.0838223377103915
sg7
F0.005890698742355038
ssS'n_jets'
p18
(dp19
g5
F0.00585865625604387
sg6
F1.082917699131341
sg7
F0.005890399685830827
ssS'pt2'
p20
(dp21
g5
F0.005855967711232424
sg6
F1.0827942154999743
sg7
F0.005887741843491501
ssS'pt1'
p22
(dp23
g5
F0.005855583082407634
sg6
F1.082743056251746
sg7
F0.005887287039708866
sss.