(dp0
S'CRDY'
p1
(dp2
S'ht'
p3
(dp4
S'erUp'
p5
F0.00586077827850251
sS'value'
p6
F1.0831828238427423
sS'erDown'
p7
F0.005892529270033142
ssS'eta1'
p8
(dp9
g5
F0.005860963658381291
sg6
F1.084620186630867
sg7
F0.005892782958383025
ssS'eta2'
p10
(dp11
g5
F0.005856919547883921
sg6
F1.0830940924300494
sg7
F0.005888618661273215
ssS'pt_g1'
p12
(dp13
g5
F0.005856708405662658
sg6
F1.0830402671607826
sg7
F0.0058884189309440504
ssS'phi2'
p14
(dp15
g5
F0.005862079533613951
sg6
F1.0849728566266144
sg7
F0.005893810609046479
ssS'phi1'
p16
(dp17
g5
F0.005862079533613951
sg6
F1.0849728566266144
sg7
F0.005893810609046479
ssS'n_jets'
p18
(dp19
g5
F0.005854367708370445
sg6
F1.0821872579852354
sg7
F0.005886117893915133
ssS'pt2'
p20
(dp21
g5
F0.005856038103225769
sg6
F1.082818562568616
sg7
F0.0058876531935569965
ssS'pt1'
p22
(dp23
g5
F0.005855897228501883
sg6
F1.0828781986522078
sg7
F0.005887614253627493
sss.