(dp0
S'CRDY'
p1
(dp2
S'ht'
p3
(dp4
S'erUp'
p5
F0.010727504906094643
sS'value'
p6
F1.0806468250770884
sS'erDown'
p7
F0.010834686238250235
ssS'eta1'
p8
(dp9
g5
F0.010717406655570638
sg6
F1.0799552852665015
sg7
F0.010824540164646956
ssS'eta2'
p10
(dp11
g5
F0.01071148604267358
sg6
F1.0787773076147318
sg7
F0.010818666969308444
ssS'pt_g1'
p12
(dp13
g5
F0.010708469696347311
sg6
F1.0781735218775073
sg7
F0.010815631429493155
ssS'phi2'
p14
(dp15
g5
F0.010732577303149693
sg6
F1.082898333246137
sg7
F0.010839672196623962
ssS'phi1'
p16
(dp17
g5
F0.010732577303149693
sg6
F1.082898333246137
sg7
F0.010839672196623962
ssS'n_jets'
p18
(dp19
g5
F0.010700249038111176
sg6
F1.0765795889231464
sg7
F0.010807381142878159
ssS'pt2'
p20
(dp21
g5
F0.010706980336798733
sg6
F1.0779209845016324
sg7
F0.010814132655710962
ssS'pt1'
p22
(dp23
g5
F0.010708641651540729
sg6
F1.078286647702001
sg7
F0.010815789301272805
sss.