(dp0
S'CRDY'
p1
(dp2
S'pt1'
p3
(dp4
I0
(dp5
S'erUp'
p6
F0.006987951162432227
sS'value'
p7
F1.085993003430782
sS'erDown'
p8
F0.007033027781825796
ssI1
(dp9
g6
F0.007061215359273287
sg7
F1.0971698676443875
sg8
F0.00710663867588468
ssI2
(dp10
g6
F0.0069754444611831445
sg7
F1.084420867672193
sg8
F0.007020532827913151
ssI3
(dp11
g6
F0.006424182025469682
sg7
F0.9970336460645518
sg8
F0.00646396338371813
ssI4
(dp12
g6
F0.006453948841885659
sg7
F1.0018149792344855
sg8
F0.006494087917676028
ssI5
(dp13
g6
F0.00644377578253208
sg7
F1.0004949053613228
sg8
F0.0064837710873346666
ssI6
(dp14
g6
F0.0005815068009127344
sg7
F1.165
sg8
F0.0
ssI7
(dp15
g6
F0.0004036974014487438
sg7
F1.165
sg8
F0.0
ssI8
(dp16
g6
F0.0007220822371747371
sg7
F1.165
sg8
F0.0
ssss.