(dp0
S'CRDY'
p1
(dp2
S'ht'
p3
(dp4
S'erUp'
p5
F0.005862595085856626
sS'value'
p6
F1.0836600295191512
sS'erDown'
p7
F0.005894342593256496
ssS'eta1'
p8
(dp9
g5
F0.005862977666933
sg6
F1.0851019078102397
sg7
F0.005894730414931271
ssS'eta2'
p10
(dp11
g5
F0.005858872391138803
sg6
F1.0835761581634138
sg7
F0.005890577074742387
ssS'pt_g1'
p12
(dp13
g5
F0.005858651459138553
sg6
F1.0835274536984727
sg7
F0.005890478096421292
ssS'phi2'
p14
(dp15
g5
F0.005863999293978406
sg6
F1.0854310140402124
sg7
F0.005895746661185086
ssS'phi1'
p16
(dp17
g5
F0.005863999293978406
sg6
F1.0854310140402124
sg7
F0.005895746661185086
ssS'n_jets'
p18
(dp19
g5
F0.005856372904315732
sg6
F1.0826830956496165
sg7
F0.005888115459115495
ssS'pt2'
p20
(dp21
g5
F0.005857982602989864
sg6
F1.0833142788616588
sg7
F0.005889726568425235
ssS'pt1'
p22
(dp23
g5
F0.005857863401434793
sg6
F1.083354539235421
sg7
F0.005889627942547548
sss.