(dp0
S'CRTT'
p1
(dp2
S'm_ll'
p3
(dp4
I0
(dp5
S'erUp'
p6
F0.02808499023130262
sS'value'
p7
cnumpy.core.multiarray
scalar
p8
(cnumpy
dtype
p9
(S'f8'
p10
I0
I1
tp11
Rp12
(I3
S'<'
p13
NNNI-1
I-1
I0
tp14
bS'r=\n\xd7\xa3p\xed?'
p15
tp16
Rp17
sS'erDown'
p18
F0.028861374278697838
ssI1
(dp19
g6
F0.028090927624163098
sg7
g8
(g12
S'\xc4\xf5(\\\x8f\xc2\xed?'
p20
tp21
Rp22
sg18
F0.02887131108760732
ssI2
(dp23
g6
F0.02809431495670056
sg7
g8
(g12
S'r=\n\xd7\xa3p\xed?'
p24
tp25
Rp26
sg18
F0.028867466658503815
ssI3
(dp27
g6
F0.02807676099356593
sg7
g8
(g12
S'r=\n\xd7\xa3p\xed?'
p28
tp29
Rp30
sg18
F0.028849848243240328
ssI4
(dp31
g6
F0.028076003350430145
sg7
g8
(g12
S'r=\n\xd7\xa3p\xed?'
p32
tp33
Rp34
sg18
F0.028852423664363136
ssI5
(dp35
g6
F0.02808713231759008
sg7
g8
(g12
S' \x85\xebQ\xb8\x1e\xed?'
p36
tp37
Rp38
sg18
F0.028857490850313194
ssI6
(dp39
g6
F0.028092435648357617
sg7
g8
(g12
S'\xc4\xf5(\\\x8f\xc2\xed?'
p40
tp41
Rp42
sg18
F0.02887260570269845
ssI7
(dp43
g6
F0.028101915630199814
sg7
g8
(g12
S'\x16\xaeG\xe1z\x14\xee?'
p44
tp45
Rp46
sg18
F0.028886566346253195
ssI8
(dp47
g6
F0.028101375375637172
sg7
g8
(g12
S'r=\n\xd7\xa3p\xed?'
p48
tp49
Rp50
sg18
F0.028877819548205896
sssS'eta1'
p51
(dp52
I0
(dp53
g6
F0.02821475753441871
sg7
g8
(g12
S'\xc4\xf5(\\\x8f\xc2\xed?'
p54
tp55
Rp56
sg18
F0.028990662508304066
ssI1
(dp57
g6
F0.028209258536196824
sg7
g8
(g12
S'\x16\xaeG\xe1z\x14\xee?'
p58
tp59
Rp60
sg18
F0.02898927036372334
ssI2
(dp61
g6
F0.028225911309064933
sg7
g8
(g12
S'r=\n\xd7\xa3p\xed?'
p62
tp63
Rp64
sg18
F0.028999066686098307
ssI3
(dp65
g6
F0.028226890226422774
sg7
g8
(g12
S'r=\n\xd7\xa3p\xed?'
p66
tp67
Rp68
sg18
F0.0289989752094848
ssI4
(dp69
g6
F0.028217793313914163
sg7
g8
(g12
S'\xc4\xf5(\\\x8f\xc2\xed?'
p70
tp71
Rp72
sg18
F0.028993106887930775
ssI5
(dp73
g6
F0.028237962952193718
sg7
g8
(g12
S'r=\n\xd7\xa3p\xed?'
p74
tp75
Rp76
sg18
F0.02900785322054722
ssI6
(dp77
g6
F0.028198505684061237
sg7
g8
(g12
S'\xc4\xf5(\\\x8f\xc2\xed?'
p78
tp79
Rp80
sg18
F0.028978887330635805
ssI7
(dp81
g6
F0.028194869714651793
sg7
g8
(g12
S'\x16\xaeG\xe1z\x14\xee?'
p82
tp83
Rp84
sg18
F0.028979953912156464
ssI8
(dp85
g6
F0.02821055122098326
sg7
g8
(g12
S'\xc4\xf5(\\\x8f\xc2\xed?'
p86
tp87
Rp88
sg18
F0.028987546935685393
sssS'eta2'
p89
(dp90
I0
(dp91
g6
F0.028284497914567996
sg7
g8
(g12
S'\xc4\xf5(\\\x8f\xc2\xed?'
p92
tp93
Rp94
sg18
F0.029058741507962504
ssI1
(dp95
g6
F0.028272363847842152
sg7
g8
(g12
S'\x16\xaeG\xe1z\x14\xee?'
p96
tp97
Rp98
sg18
F0.02905172943415346
ssI2
(dp99
g6
F0.02829559190168285
sg7
g8
(g12
S'r=\n\xd7\xa3p\xed?'
p100
tp101
Rp102
sg18
F0.029066544364106273
ssI3
(dp103
g6
F0.028290434943581633
sg7
g8
(g12
S'r=\n\xd7\xa3p\xed?'
p104
tp105
Rp106
sg18
F0.029060972922983708
ssI4
(dp107
g6
F0.02827936290164268
sg7
g8
(g12
S'\xc4\xf5(\\\x8f\xc2\xed?'
p108
tp109
Rp110
sg18
F0.029053995763973606
ssI5
(dp111
g6
F0.028299987465163157
sg7
g8
(g12
S'r=\n\xd7\xa3p\xed?'
p112
tp113
Rp114
sg18
F0.029067960498644907
ssI6
(dp115
g6
F0.028275992085293966
sg7
g8
(g12
S'\xc4\xf5(\\\x8f\xc2\xed?'
p116
tp117
Rp118
sg18
F0.029054468517745402
ssI7
(dp119
g6
F0.0282598447297282
sg7
g8
(g12
S'\x16\xaeG\xe1z\x14\xee?'
p120
tp121
Rp122
sg18
F0.029044553633276404
ssI8
(dp123
g6
F0.028290472787126264
sg7
g8
(g12
S'\xc4\xf5(\\\x8f\xc2\xed?'
p124
tp125
Rp126
sg18
F0.029064813643423948
sssS'pt_g1'
p127
(dp128
I0
(dp129
g6
F0.02845003264811863
sg7
g8
(g12
S'\x16\xaeG\xe1z\x14\xee?'
p130
tp131
Rp132
sg18
F0.029227336734270026
ssI1
(dp133
g6
F0.028466925370513096
sg7
g8
(g12
S'\x16\xaeG\xe1z\x14\xee?'
p134
tp135
Rp136
sg18
F0.029247069446466267
ssI2
(dp137
g6
F0.028437440417174775
sg7
g8
(g12
S'\xc4\xf5(\\\x8f\xc2\xed?'
p138
tp139
Rp140
sg18
F0.02921281012720267
ssI3
(dp141
g6
F0.02845398380680153
sg7
g8
(g12
S'\xc4\xf5(\\\x8f\xc2\xed?'
p142
tp143
Rp144
sg18
F0.029228850320726085
ssI4
(dp145
g6
F0.028467589874156984
sg7
g8
(g12
S'\x16\xaeG\xe1z\x14\xee?'
p146
tp147
Rp148
sg18
F0.029244623194689012
ssI5
(dp149
g6
F0.028443289936381344
sg7
g8
(g12
S'\xc4\xf5(\\\x8f\xc2\xed?'
p150
tp151
Rp152
sg18
F0.02921649548175942
ssI6
(dp153
g6
F0.02844406097211105
sg7
g8
(g12
S'\x16\xaeG\xe1z\x14\xee?'
p154
tp155
Rp156
sg18
F0.029223987961887743
ssI7
(dp157
g6
F0.028464136081026825
sg7
g8
(g12
S'hfffff\xee?'
p158
tp159
Rp160
sg18
F0.02924727184415865
ssI8
(dp161
g6
F0.028429668201795377
sg7
g8
(g12
S'\x16\xaeG\xe1z\x14\xee?'
p162
tp163
Rp164
sg18
F0.029207351786202485
sssS'met'
p165
(dp166
I0
(dp167
g6
F0.028163984685259047
sg7
g8
(g12
S' \x85\xebQ\xb8\x1e\xed?'
p168
tp169
Rp170
sg18
F0.028932600527113994
ssI1
(dp171
g6
F0.028163411184113918
sg7
g8
(g12
S'r=\n\xd7\xa3p\xed?'
p172
tp173
Rp174
sg18
F0.0289358756509962
ssI2
(dp175
g6
F0.028173642333561566
sg7
g8
(g12
S' \x85\xebQ\xb8\x1e\xed?'
p176
tp177
Rp178
sg18
F0.028939792048585433
ssI3
(dp179
g6
F0.028143087185865112
sg7
g8
(g12
S' \x85\xebQ\xb8\x1e\xed?'
p180
tp181
Rp182
sg18
F0.028909237809181088
ssI4
(dp183
g6
F0.02813603008367671
sg7
g8
(g12
S' \x85\xebQ\xb8\x1e\xed?'
p184
tp185
Rp186
sg18
F0.028905194220835484
ssI5
(dp187
g6
F0.028155623546754716
sg7
g8
(g12
S' \x85\xebQ\xb8\x1e\xed?'
p188
tp189
Rp190
sg18
F0.028919715744970986
ssI6
(dp191
g6
F0.02818798532744038
sg7
g8
(g12
S'r=\n\xd7\xa3p\xed?'
p192
tp193
Rp194
sg18
F0.02895937225521439
ssI7
(dp195
g6
F0.02819217249197159
sg7
g8
(g12
S'\xc4\xf5(\\\x8f\xc2\xed?'
p196
tp197
Rp198
sg18
F0.028967919067485415
ssI8
(dp199
g6
F0.02819516310416359
sg7
g8
(g12
S'r=\n\xd7\xa3p\xed?'
p200
tp201
Rp202
sg18
F0.02896378172830205
sssS'phi2'
p203
(dp204
I0
(dp205
g6
F0.028267302042218945
sg7
g8
(g12
S'hfffff\xee?'
p206
tp207
Rp208
sg18
F0.029055650447738723
ssI1
(dp209
g6
F0.02825189438075426
sg7
g8
(g12
S'hfffff\xee?'
p210
tp211
Rp212
sg18
F0.02904403692645563
ssI2
(dp213
g6
F0.02828883260898518
sg7
g8
(g12
S'\x16\xaeG\xe1z\x14\xee?'
p214
tp215
Rp216
sg18
F0.029074181468410454
ssI3
(dp217
g6
F0.028293038772847834
sg7
g8
(g12
S'\x16\xaeG\xe1z\x14\xee?'
p218
tp219
Rp220
sg18
F0.029075823770167708
ssI4
(dp221
g6
F0.028278581448844098
sg7
g8
(g12
S'\x16\xaeG\xe1z\x14\xee?'
p222
tp223
Rp224
sg18
F0.029064187160689703
ssI5
(dp225
g6
F0.028309410282571168
sg7
g8
(g12
S'\x16\xaeG\xe1z\x14\xee?'
p226
tp227
Rp228
sg18
F0.02909014069331395
ssI6
(dp229
g6
F0.02822489853053567
sg7
g8
(g12
S'\xba\x1e\x85\xebQ\xb8\xee?'
p230
tp231
Rp232
sg18
F0.029020471809894643
ssI7
(dp233
g6
F0.02820193535019533
sg7
g8
(g12
S'\x0c\xd7\xa3p=\n\xef?'
p234
tp235
Rp236
sg18
F0.02900223366279797
ssI8
(dp237
g6
F0.028256425585129197
sg7
g8
(g12
S'hfffff\xee?'
p238
tp239
Rp240
sg18
F0.029047689828356482
sssS'phi1'
p241
(dp242
I0
(dp243
g6
F0.028267302042218945
sg7
g8
(g12
S'hfffff\xee?'
p244
tp245
Rp246
sg18
F0.029055650447738723
ssI1
(dp247
g6
F0.02825189438075426
sg7
g8
(g12
S'hfffff\xee?'
p248
tp249
Rp250
sg18
F0.02904403692645563
ssI2
(dp251
g6
F0.02828883260898518
sg7
g8
(g12
S'\x16\xaeG\xe1z\x14\xee?'
p252
tp253
Rp254
sg18
F0.029074181468410454
ssI3
(dp255
g6
F0.028293038772847834
sg7
g8
(g12
S'\x16\xaeG\xe1z\x14\xee?'
p256
tp257
Rp258
sg18
F0.029075823770167708
ssI4
(dp259
g6
F0.028278581448844098
sg7
g8
(g12
S'\x16\xaeG\xe1z\x14\xee?'
p260
tp261
Rp262
sg18
F0.029064187160689703
ssI5
(dp263
g6
F0.028309410282571168
sg7
g8
(g12
S'\x16\xaeG\xe1z\x14\xee?'
p264
tp265
Rp266
sg18
F0.02909014069331395
ssI6
(dp267
g6
F0.02822489853053567
sg7
g8
(g12
S'\xba\x1e\x85\xebQ\xb8\xee?'
p268
tp269
Rp270
sg18
F0.029020471809894643
ssI7
(dp271
g6
F0.02820193535019533
sg7
g8
(g12
S'\x0c\xd7\xa3p=\n\xef?'
p272
tp273
Rp274
sg18
F0.02900223366279797
ssI8
(dp275
g6
F0.028256425585129197
sg7
g8
(g12
S'hfffff\xee?'
p276
tp277
Rp278
sg18
F0.029047689828356482
sssS'ht'
p279
(dp280
I0
(dp281
g6
F0.028000301309649922
sg7
g8
(g12
S'\xce\xcc\xcc\xcc\xcc\xcc\xec?'
p282
tp283
Rp284
sg18
F0.028783797915116316
ssI1
(dp285
g6
F0.02807544307895038
sg7
g8
(g12
S' \x85\xebQ\xb8\x1e\xed?'
p286
tp287
Rp288
sg18
F0.02886316874770456
ssI2
(dp289
g6
F0.02797543382534806
sg7
g8
(g12
S'\xce\xcc\xcc\xcc\xcc\xcc\xec?'
p290
tp291
Rp292
sg18
F0.028756356591619348
ssI3
(dp293
g6
F0.027962876563267014
sg7
g8
(g12
S'|\x14\xaeG\xe1z\xec?'
p294
tp295
Rp296
sg18
F0.028741994343684962
ssI4
(dp297
g6
F0.028010345310992668
sg7
g8
(g12
S'\xce\xcc\xcc\xcc\xcc\xcc\xec?'
p298
tp299
Rp300
sg18
F0.028792588228413907
ssI5
(dp301
g6
F0.027945661871405347
sg7
g8
(g12
S'|\x14\xaeG\xe1z\xec?'
p302
tp303
Rp304
sg18
F0.02872264903172128
ssI6
(dp305
g6
F0.02804361780157738
sg7
g8
(g12
S' \x85\xebQ\xb8\x1e\xed?'
p306
tp307
Rp308
sg18
F0.028832442402355385
ssI7
(dp309
g6
F0.02813923366922344
sg7
g8
(g12
S'r=\n\xd7\xa3p\xed?'
p310
tp311
Rp312
sg18
F0.028932855952060077
ssI8
(dp313
g6
F0.02801084512139851
sg7
g8
(g12
S'\xce\xcc\xcc\xcc\xcc\xcc\xec?'
p314
tp315
Rp316
sg18
F0.02879656291753696
sssS'n_jets'
p317
(dp318
I0
(dp319
g6
F0.028296969365358637
sg7
g8
(g12
S' \x85\xebQ\xb8\x1e\xed?'
p320
tp321
Rp322
sg18
F0.029056860415678787
ssI1
(dp323
g6
F0.028287048786329483
sg7
g8
(g12
S'r=\n\xd7\xa3p\xed?'
p324
tp325
Rp326
sg18
F0.02905120000423944
ssI2
(dp327
g6
F0.028306734139800116
sg7
g8
(g12
S' \x85\xebQ\xb8\x1e\xed?'
p328
tp329
Rp330
sg18
F0.02906407045795789
ssI3
(dp331
g6
F0.028306840762142516
sg7
g8
(g12
S'\xce\xcc\xcc\xcc\xcc\xcc\xec?'
p332
tp333
Rp334
sg18
F0.029062865756147804
ssI4
(dp335
g6
F0.028295970448851793
sg7
g8
(g12
S' \x85\xebQ\xb8\x1e\xed?'
p336
tp337
Rp338
sg18
F0.029055180954117965
ssI5
(dp339
g6
F0.028317651259798682
sg7
g8
(g12
S'\xce\xcc\xcc\xcc\xcc\xcc\xec?'
p340
tp341
Rp342
sg18
F0.02907169277841115
ssI6
(dp343
g6
F0.028287043651758603
sg7
g8
(g12
S'r=\n\xd7\xa3p\xed?'
p344
tp345
Rp346
sg18
F0.029051173541791875
ssI7
(dp347
g6
F0.028279523448780264
sg7
g8
(g12
S'\xc4\xf5(\\\x8f\xc2\xed?'
p348
tp349
Rp350
sg18
F0.029048638957499096
ssI8
(dp351
g6
F0.028295701607091717
sg7
g8
(g12
S' \x85\xebQ\xb8\x1e\xed?'
p352
tp353
Rp354
sg18
F0.029056752392238483
sssS'pt2'
p355
(dp356
I0
(dp357
g6
F0.02835710270124292
sg7
g8
(g12
S'r=\n\xd7\xa3p\xed?'
p358
tp359
Rp360
sg18
F0.029125740150636625
ssI1
(dp361
g6
F0.028362012885226773
sg7
g8
(g12
S'\xc4\xf5(\\\x8f\xc2\xed?'
p362
tp363
Rp364
sg18
F0.029134086094369738
ssI2
(dp365
g6
F0.02836146044319865
sg7
g8
(g12
S'r=\n\xd7\xa3p\xed?'
p366
tp367
Rp368
sg18
F0.029127981342784826
ssI3
(dp369
g6
F0.028355634525615292
sg7
g8
(g12
S' \x85\xebQ\xb8\x1e\xed?'
p370
tp371
Rp372
sg18
F0.029120911324957865
ssI4
(dp373
g6
F0.028355248404789424
sg7
g8
(g12
S'r=\n\xd7\xa3p\xed?'
p374
tp375
Rp376
sg18
F0.029123182636076606
ssI5
(dp377
g6
F0.028362601969866064
sg7
g8
(g12
S' \x85\xebQ\xb8\x1e\xed?'
p378
tp379
Rp380
sg18
F0.029126119055384425
ssI6
(dp381
g6
F0.028357944210918973
sg7
g8
(g12
S'\xc4\xf5(\\\x8f\xc2\xed?'
p382
tp383
Rp384
sg18
F0.029130275557526564
ssI7
(dp385
g6
F0.028367099196848322
sg7
g8
(g12
S'\x16\xaeG\xe1z\x14\xee?'
p386
tp387
Rp388
sg18
F0.029143384839232955
ssI8
(dp389
g6
F0.02836009962859165
sg7
g8
(g12
S'r=\n\xd7\xa3p\xed?'
p390
tp391
Rp392
sg18
F0.029129967540900914
sssS'pt1'
p393
(dp394
I0
(dp395
g6
F0.028162595770506393
sg7
g8
(g12
S'\xc4\xf5(\\\x8f\xc2\xed?'
p396
tp397
Rp398
sg18
F0.028941934331460417
ssI1
(dp399
g6
F0.028177808992586817
sg7
g8
(g12
S'\x16\xaeG\xe1z\x14\xee?'
p400
tp401
Rp402
sg18
F0.028959862825485128
ssI2
(dp403
g6
F0.02815918617639912
sg7
g8
(g12
S'\xc4\xf5(\\\x8f\xc2\xed?'
p404
tp405
Rp406
sg18
F0.028936668132863996
ssI3
(dp407
g6
F0.028154000992822947
sg7
g8
(g12
S'\xc4\xf5(\\\x8f\xc2\xed?'
p408
tp409
Rp410
sg18
F0.028930485777182713
ssI4
(dp411
g6
F0.028161221892110122
sg7
g8
(g12
S'\xc4\xf5(\\\x8f\xc2\xed?'
p412
tp413
Rp414
sg18
F0.028939924021942787
ssI5
(dp415
g6
F0.028154266561568275
sg7
g8
(g12
S'r=\n\xd7\xa3p\xed?'
p416
tp417
Rp418
sg18
F0.028929129063258063
ssI6
(dp419
g6
F0.02816889055744265
sg7
g8
(g12
S'\x16\xaeG\xe1z\x14\xee?'
p420
tp421
Rp422
sg18
F0.028951610077470713
ssI7
(dp423
g6
F0.028189087696094184
sg7
g8
(g12
S'hfffff\xee?'
p424
tp425
Rp426
sg18
F0.02897476848727565
ssI8
(dp427
g6
F0.028161962166374788
sg7
g8
(g12
S'\xc4\xf5(\\\x8f\xc2\xed?'
p428
tp429
Rp430
sg18
F0.028942562463650012
ssss.