(dp0
S'CRTT'
p1
(dp2
S'm_ll'
p3
(dp4
S'erUp'
p5
F0.028084990491646145
sS'value'
p6
cnumpy.core.multiarray
scalar
p7
(cnumpy
dtype
p8
(S'f8'
p9
I0
I1
tp10
Rp11
(I3
S'<'
p12
NNNI-1
I-1
I0
tp13
bS'r=\n\xd7\xa3p\xed?'
p14
tp15
Rp16
sS'erDown'
p17
F0.028861375763520658
ssS'eta1'
p18
(dp19
g5
F0.02821476861918215
sg6
g7
(g11
S'\xc4\xf5(\\\x8f\xc2\xed?'
p20
tp21
Rp22
sg17
F0.028990651554163915
ssS'eta2'
p23
(dp24
g5
F0.028284525006536443
sg6
g7
(g11
S'\xc4\xf5(\\\x8f\xc2\xed?'
p25
tp26
Rp27
sg17
F0.02905871446130126
ssS'pt_g1'
p28
(dp29
g5
F0.02845003230837484
sg6
g7
(g11
S'\x16\xaeG\xe1z\x14\xee?'
p30
tp31
Rp32
sg17
F0.029227336293988104
ssS'met'
p33
(dp34
g5
F0.028163985517230983
sg6
g7
(g11
S' \x85\xebQ\xb8\x1e\xed?'
p35
tp36
Rp37
sg17
F0.028932598851512448
ssS'phi2'
p38
(dp39
g5
F0.028267307117739948
sg6
g7
(g11
S'hfffff\xee?'
p40
tp41
Rp42
sg17
F0.029055646965125415
ssS'phi1'
p43
(dp44
g5
F0.028267307117739948
sg6
g7
(g11
S'hfffff\xee?'
p45
tp46
Rp47
sg17
F0.029055646965125415
ssS'ht'
p48
(dp49
g5
F0.028000284737021874
sg6
g7
(g11
S'\xce\xcc\xcc\xcc\xcc\xcc\xec?'
p50
tp51
Rp52
sg17
F0.028783811666964865
ssS'n_jets'
p53
(dp54
g5
F0.028296970962586654
sg6
g7
(g11
S' \x85\xebQ\xb8\x1e\xed?'
p55
tp56
Rp57
sg17
F0.02905686176177613
ssS'pt2'
p58
(dp59
g5
F0.02835711330174906
sg6
g7
(g11
S'r=\n\xd7\xa3p\xed?'
p60
tp61
Rp62
sg17
F0.0291257305665662
ssS'pt1'
p63
(dp64
g5
F0.028162609782335424
sg6
g7
(g11
S'\xc4\xf5(\\\x8f\xc2\xed?'
p65
tp66
Rp67
sg17
F0.02894192213019764
sss.