(dp0
S'CRTT'
p1
(dp2
S'm_ll'
p3
(dp4
S'erUp'
p5
F0.028104418685627186
sS'value'
p6
cnumpy.core.multiarray
scalar
p7
(cnumpy
dtype
p8
(S'f8'
p9
I0
I1
tp10
Rp11
(I3
S'<'
p12
NNNI-1
I-1
I0
tp13
bS'\xc4\xf5(\\\x8f\xc2\xed?'
p14
tp15
Rp16
sS'erDown'
p17
F0.02888695952426057
ssS'eta1'
p18
(dp19
g5
F0.02815931909834757
sg6
g7
(g11
S'hfffff\xee?'
p20
tp21
Rp22
sg17
F0.028953889338798944
ssS'eta2'
p23
(dp24
g5
F0.028319305188150734
sg6
g7
(g11
S'\x16\xaeG\xe1z\x14\xee?'
p25
tp26
Rp27
sg17
F0.029105610861296705
ssS'pt_g1'
p28
(dp29
g5
F0.028567055169935296
sg6
g7
(g11
S'hfffff\xee?'
p30
tp31
Rp32
sg17
F0.02934948904480683
ssS'met'
p33
(dp34
g5
F0.02822578617674909
sg6
g7
(g11
S'r=\n\xd7\xa3p\xed?'
p35
tp36
Rp37
sg17
F0.028996704723500244
ssS'phi2'
p38
(dp39
g5
F0.028146211201096172
sg6
g7
(g11
S'\xb0G\xe1z\x14\xae\xef?'
p40
tp41
Rp42
sg17
F0.028970129419293555
ssS'phi1'
p43
(dp44
g5
F0.028146211201096172
sg6
g7
(g11
S'\xb0G\xe1z\x14\xae\xef?'
p45
tp46
Rp47
sg17
F0.028970129419293555
ssS'ht'
p48
(dp49
g5
F0.027735115019236756
sg6
g7
(g11
S' \x85\xebQ\xb8\x1e\xed?'
p50
tp51
Rp52
sg17
F0.028523398595738714
ssS'n_jets'
p53
(dp54
g5
F0.028296970962586654
sg6
g7
(g11
S' \x85\xebQ\xb8\x1e\xed?'
p55
tp56
Rp57
sg17
F0.02905686176177613
ssS'pt2'
p58
(dp59
g5
F0.028379371014256582
sg6
g7
(g11
S'r=\n\xd7\xa3p\xed?'
p60
tp61
Rp62
sg17
F0.029151049142321805
ssS'pt1'
p63
(dp64
g5
F0.028187276247760074
sg6
g7
(g11
S'\x16\xaeG\xe1z\x14\xee?'
p65
tp66
Rp67
sg17
F0.028970044886276747
sss.