(dp0
S'CRTT'
p1
(dp2
S'm_ll'
p3
(dp4
S'erUp'
p5
F0.028222318129354496
sS'value'
p6
cnumpy.core.multiarray
scalar
p7
(cnumpy
dtype
p8
(S'f8'
p9
I0
I1
tp10
Rp11
(I3
S'<'
p12
NNNI-1
I-1
I0
tp13
bS' \x85\xebQ\xb8\x1e\xed?'
p14
tp15
Rp16
sS'erDown'
p17
F0.02898823237901571
ssS'eta1'
p18
(dp19
g5
F0.02826544471664072
sg6
g7
(g11
S'r=\n\xd7\xa3p\xed?'
p20
tp21
Rp22
sg17
F0.02903270843041328
ssS'eta2'
p23
(dp24
g5
F0.028228794015460412
sg6
g7
(g11
S'r=\n\xd7\xa3p\xed?'
p25
tp26
Rp27
sg17
F0.02899990920928308
ssS'pt_g1'
p28
(dp29
g5
F0.028407784624392862
sg6
g7
(g11
S'\xc4\xf5(\\\x8f\xc2\xed?'
p30
tp31
Rp32
sg17
F0.0291835696275613
ssS'met'
p33
(dp34
g5
F0.028250536637087098
sg6
g7
(g11
S' \x85\xebQ\xb8\x1e\xed?'
p35
tp36
Rp37
sg17
F0.02901325810421207
ssS'phi2'
p38
(dp39
g5
F0.028275821188623818
sg6
g7
(g11
S'\xc4\xf5(\\\x8f\xc2\xed?'
p40
tp41
Rp42
sg17
F0.029047350899090385
ssS'phi1'
p43
(dp44
g5
F0.028275821188623818
sg6
g7
(g11
S'\xc4\xf5(\\\x8f\xc2\xed?'
p45
tp46
Rp47
sg17
F0.029047350899090385
ssS'ht'
p48
(dp49
g5
F0.028185893634005255
sg6
g7
(g11
S' \x85\xebQ\xb8\x1e\xed?'
p50
tp51
Rp52
sg17
F0.02896059817387664
ssS'n_jets'
p53
(dp54
g5
F0.028331695554893677
sg6
g7
(g11
S' \x85\xebQ\xb8\x1e\xed?'
p55
tp56
Rp57
sg17
F0.02909269544213966
ssS'pt2'
p58
(dp59
g5
F0.02828470882411338
sg6
g7
(g11
S' \x85\xebQ\xb8\x1e\xed?'
p60
tp61
Rp62
sg17
F0.029047972633942543
ssS'pt1'
p63
(dp64
g5
F0.028179804194642055
sg6
g7
(g11
S'r=\n\xd7\xa3p\xed?'
p65
tp66
Rp67
sg17
F0.028949158801231945
sss.