(dp0
S'CRWZ'
p1
(dp2
S'm_ll'
p3
(dp4
I0
(dp5
S'erUp'
p6
F0.04498225884864926
sS'value'
p7
F1.2213770132426314
sS'erDown'
p8
F0.04648368068396613
ssI1
(dp9
g6
F0.04498870696648938
sg7
F1.224689021451935
sg8
F0.04648923829326845
ssI2
(dp10
g6
F0.04497323387273289
sg7
F1.2171801792660515
sg8
F0.046475427472957964
ssI3
(dp11
g6
F0.044979387158384565
sg7
F1.2172977006803865
sg8
F0.046482573086569
ssI4
(dp12
g6
F0.04498669963450297
sg7
F1.2206533829426236
sg8
F0.04648932697593766
ssI5
(dp13
g6
F0.04496920157206996
sg7
F1.2131154803855797
sg8
F0.046472889798127026
ssI6
(dp14
g6
F0.044987252576456305
sg7
F1.2259006899376166
sg8
F0.04648619812999222
ssI7
(dp15
g6
F0.044992798144945834
sg7
F1.2291379617686506
sg8
F0.04649065720365164
ssI8
(dp16
g6
F0.044979383219244884
sg7
F1.2217271465688921
sg8
F0.04647948143964853
sssS'eta1'
p17
(dp18
I0
(dp19
g6
F0.04524942279395883
sg7
F1.2331346189786851
sg8
F0.04672839044198218
ssI1
(dp20
g6
F0.04525781755408609
sg7
F1.2364667714699507
sg8
F0.046735265234767676
ssI2
(dp21
g6
F0.04523438607275043
sg7
F1.2290841456584665
sg8
F0.04671506519326063
ssI3
(dp22
g6
F0.04525931648931425
sg7
F1.2290932115954363
sg8
F0.046740244639142725
ssI4
(dp23
g6
F0.04526865004882308
sg7
F1.2322922936705007
sg8
F0.04674855738088546
ssI5
(dp24
g6
F0.045243685839833514
sg7
F1.2252268068037269
sg8
F0.04672586194955608
ssI6
(dp25
g6
F0.0452354967769284
sg7
F1.2378481860936574
sg8
F0.04671172362662257
ssI7
(dp26
g6
F0.04524296297961983
sg7
F1.2413054874224558
sg8
F0.046717261725343295
ssI8
(dp27
g6
F0.0452209426873007
sg7
F1.233634459600538
sg8
F0.04669950969836578
sssS'eta2'
p28
(dp29
I0
(dp30
g6
F0.04543013382441541
sg7
F1.2284754661401671
sg8
F0.04690696257523408
ssI1
(dp31
g6
F0.045442521341279685
sg7
F1.2326523351458383
sg8
F0.04691766590655688
ssI2
(dp32
g6
F0.04541058108718743
sg7
F1.2235531286757924
sg8
F0.04688917121690417
ssI3
(dp33
g6
F0.04542678657785526
sg7
F1.223254811083041
sg8
F0.046906202166713706
ssI4
(dp34
g6
F0.04544279799822859
sg7
F1.2271968737295542
sg8
F0.04692095189352119
ssI5
(dp35
g6
F0.04540351881556037
sg7
F1.2186460283276956
sg8
F0.046884062515716085
ssI6
(dp36
g6
F0.04542774945488426
sg7
F1.2348879636019585
sg8
F0.04690099431970918
ssI7
(dp37
g6
F0.04543560126198076
sg7
F1.239303540607079
sg8
F0.04690658937108516
ssI8
(dp38
g6
F0.04541281482961157
sg7
F1.2296531326424758
sg8
F0.04688848201390039
sssS'ht'
p39
(dp40
I0
(dp41
g6
F0.04564008842115874
sg7
F1.242966736516192
sg8
F0.04711075835413858
ssI1
(dp42
g6
F0.045702161632765304
sg7
F1.2496984220834184
sg8
F0.04716742851056854
ssI2
(dp43
g6
F0.04557141035712675
sg7
F1.2356058592634787
sg8
F0.04704670005893763
ssI3
(dp44
g6
F0.0456785607009913
sg7
F1.2410664644103055
sg8
F0.04715108721105343
ssI4
(dp45
g6
F0.045745855947051606
sg7
F1.247903929263457
sg8
F0.04721329898644422
ssI5
(dp46
g6
F0.04560369857635482
sg7
F1.233633484812946
sg8
F0.047080840155162784
ssI6
(dp47
g6
F0.045599331162123447
sg7
F1.2453713150420123
sg8
F0.047067362163986104
ssI7
(dp48
g6
F0.04565568635822026
sg7
F1.2519291670706876
sg8
F0.04711830446656173
ssI8
(dp49
g6
F0.0455372799997904
sg7
F1.238156356598914
sg8
F0.04701031092086971
sssS'met'
p50
(dp51
I0
(dp52
g6
F0.045332736659772443
sg7
F1.2208316719048253
sg8
F0.046810997245502195
ssI1
(dp53
g6
F0.045341216629699366
sg7
F1.2243380339680718
sg8
F0.04681867493221814
ssI2
(dp54
g6
F0.04532407102225422
sg7
F1.2163211408995582
sg8
F0.046803096819306944
ssI3
(dp55
g6
F0.045333076001882855
sg7
F1.216658676445291
sg8
F0.0468127279090933
ssI4
(dp56
g6
F0.04534334912498328
sg7
F1.2202684370308743
sg8
F0.04682238976181008
ssI5
(dp57
g6
F0.04532239781715708
sg7
F1.2120919472409772
sg8
F0.04680258050658992
ssI6
(dp58
g6
F0.04533121388256367
sg7
F1.2256718815934646
sg8
F0.046807428135607454
ssI7
(dp59
g6
F0.045337971504674
sg7
F1.229044265668239
sg8
F0.04681310369201075
ssI8
(dp60
g6
F0.04532466858111173
sg7
F1.2212471027602474
sg8
F0.04680208856112533
sssS'phi2'
p61
(dp62
I0
(dp63
g6
F0.045401405841498876
sg7
F1.239217153874098
sg8
F0.046875093216506514
ssI1
(dp64
g6
F0.04540599310180626
sg7
F1.2442189498917506
sg8
F0.04687658057758348
ssI2
(dp65
g6
F0.045384765880839506
sg7
F1.2336232628339148
sg8
F0.046861453950923115
ssI3
(dp66
g6
F0.045396343780113924
sg7
F1.234761636405071
sg8
F0.04687334932486209
ssI4
(dp67
g6
F0.045404618103901395
sg7
F1.2395971274464508
sg8
F0.04687909088964726
ssI5
(dp68
g6
F0.04537657448061716
sg7
F1.2293960166226054
sg8
F0.04685603358080814
ssI6
(dp69
g6
F0.04540387074522445
sg7
F1.2445580760534312
sg8
F0.04687297100527443
ssI7
(dp70
g6
F0.045404577355712794
sg7
F1.2496970610727791
sg8
F0.04686992382487776
ssI8
(dp71
g6
F0.04539054346247284
sg7
F1.238791987840425
sg8
F0.04686343417585426
sssS'phi1'
p72
(dp73
I0
(dp74
g6
F0.04572817782157479
sg7
F1.2551462335912853
sg8
F0.04718656008162636
ssI1
(dp75
g6
F0.04573569887636708
sg7
F1.2579901281874186
sg8
F0.04719170903345482
ssI2
(dp76
g6
F0.045712673792891234
sg7
F1.2518050992354433
sg8
F0.04717396128541229
ssI3
(dp77
g6
F0.045725276128466774
sg7
F1.2506092134866753
sg8
F0.047188536132540815
ssI4
(dp78
g6
F0.04573517421831874
sg7
F1.253536086425346
sg8
F0.047196163437610794
ssI5
(dp79
g6
F0.04570733044912467
sg7
F1.2472057132367487
sg8
F0.04717332354295389
ssI6
(dp80
g6
F0.0457257030615259
sg7
F1.2604841336962949
sg8
F0.047177696068788855
ssI7
(dp81
g6
F0.04573119309932694
sg7
F1.2631736379185794
sg8
F0.04718042257375865
ssI8
(dp82
g6
F0.04571226469790224
sg7
F1.2573083272556473
sg8
F0.047167528621158805
sssS'n_jets'
p83
(dp84
I0
(dp85
g6
F0.04522157078627065
sg7
F1.2150021210173134
sg8
F0.046700728126019
ssI1
(dp86
g6
F0.04523414113081525
sg7
F1.2182370694105307
sg8
F0.04671292642292357
ssI2
(dp87
g6
F0.045206732420407514
sg7
F1.2107458103627473
sg8
F0.04668613057391591
ssI3
(dp88
g6
F0.04522599279744455
sg7
F1.2104467775024335
sg8
F0.04670588596971759
ssI4
(dp89
g6
F0.04523880936744695
sg7
F1.213711868347555
sg8
F0.04671872781566977
ssI5
(dp90
g6
F0.045210657828867795
sg7
F1.2062104285027522
sg8
F0.046690638780505944
ssI6
(dp91
g6
F0.045216811103865995
sg7
F1.2201252500526725
sg8
F0.046694416815550754
ssI7
(dp92
g6
F0.04522886529736425
sg7
F1.2233024387841382
sg8
F0.04670582347266983
ssI8
(dp93
g6
F0.04520226515411019
sg7
F1.2158754693688674
sg8
F0.046680596375639816
sssS'pt2'
p94
(dp95
I0
(dp96
g6
F0.04519603070744593
sg7
F1.2237113493916443
sg8
F0.04667814243087709
ssI1
(dp97
g6
F0.045206003218813295
sg7
F1.2282295484987669
sg8
F0.04668677671292598
ssI2
(dp98
g6
F0.045177388977060806
sg7
F1.218625471802409
sg8
F0.04666083938077703
ssI3
(dp99
g6
F0.045186825333909164
sg7
F1.2191893937364244
sg8
F0.04667118852694796
ssI4
(dp100
g6
F0.04520066099300535
sg7
F1.2236338791012
sg8
F0.04668395394474656
ssI5
(dp101
g6
F0.04516422997205427
sg7
F1.2142809399085976
sg8
F0.0466495993524092
ssI6
(dp102
g6
F0.045203631281567125
sg7
F1.2289742781848618
sg8
F0.04668279837890332
ssI7
(dp103
g6
F0.04520989245891016
sg7
F1.23351352712949
sg8
F0.046687312514855694
ssI8
(dp104
g6
F0.04518901858171587
sg7
F1.2237652288488448
sg8
F0.04666995996396617
sssS'pt1'
p105
(dp106
I0
(dp107
g6
F0.04528220725162413
sg7
F1.2239977218527935
sg8
F0.046761570552040777
ssI1
(dp108
g6
F0.045294258788869834
sg7
F1.228476985085902
sg8
F0.04677227085758395
ssI2
(dp109
g6
F0.04526951174977767
sg7
F1.2187756144075033
sg8
F0.0467498363618748
ssI3
(dp110
g6
F0.045285524827454626
sg7
F1.218998458128279
sg8
F0.046766797471266885
ssI4
(dp111
g6
F0.04529957771261928
sg7
F1.2235281568493954
sg8
F0.04677993996861596
ssI5
(dp112
g6
F0.04527088192160966
sg7
F1.2138050305196322
sg8
F0.04675251908631206
ssI6
(dp113
g6
F0.04527745512499903
sg7
F1.2298123750844576
sg8
F0.04675410212752351
ssI7
(dp114
g6
F0.04528755355032099
sg7
F1.234211609966917
sg8
F0.04676231779447626
ssI8
(dp115
g6
F0.045266682258441104
sg7
F1.2246041167313237
sg8
F0.04674489389391612
ssss.