(dp0
S'CRWZ'
p1
(dp2
S'm_ll'
p3
(dp4
S'erUp'
p5
F0.045139517624380066
sS'value'
p6
F1.2147335390025886
sS'erDown'
p7
F0.04664624886792579
ssS'eta1'
p8
(dp9
g5
F0.045383834497918496
sg6
F1.2273778883860347
sg7
F0.04686975206946897
ssS'eta2'
p10
(dp11
g5
F0.04554761699045029
sg6
F1.221937458553829
sg7
F0.047031963392134335
ssS'ht'
p12
(dp13
g5
F0.0457626735383172
sg6
F1.2395359855309314
sg7
F0.047240790243921804
ssS'met'
p14
(dp15
g5
F0.045447164173678
sg6
F1.2181623553091756
sg7
F0.04693131864773137
ssS'phi2'
p16
(dp17
g5
F0.04549060661856097
sg6
F1.2406708045833983
sg7
F0.046969930710933916
ssS'phi1'
p18
(dp19
g5
F0.04582671187482257
sg6
F1.255204753061563
sg7
F0.047290694805548705
ssS'n_jets'
p20
(dp21
g5
F0.045351003244674004
sg6
F1.2096338790591485
sg7
F0.046835213763307904
ssS'pt2'
p22
(dp23
g5
F0.04528505113915937
sg6
F1.2192962760855126
sg7
F0.04677438680004742
ssS'pt1'
p24
(dp25
g5
F0.0454049017395155
sg6
F1.2200792915226506
sg7
F0.04689014711667583
sss.