(dp0
S'CRWZ'
p1
(dp2
S'm_ll'
p3
(dp4
S'erUp'
p5
F0.04518158201994815
sS'value'
p6
F1.1932769034571835
sS'erDown'
p7
F0.046720260692265425
ssS'eta1'
p8
(dp9
g5
F0.04546014436878787
sg6
F1.2056952770806835
sg7
F0.046979114987128145
ssS'eta2'
p10
(dp11
g5
F0.045605073653662176
sg6
F1.1990810898622233
sg7
F0.0471203553941415
ssS'ht'
p12
(dp13
g5
F0.04586936827317545
sg6
F1.2168646940687053
sg7
F0.04738499181955591
ssS'met'
p14
(dp15
g5
F0.045496891313834276
sg6
F1.1922580112546752
sg7
F0.04701009000551282
ssS'phi2'
p16
(dp17
g5
F0.0455861292265749
sg6
F1.2121898596081742
sg7
F0.047102700354263005
ssS'phi1'
p18
(dp19
g5
F0.04594929799346481
sg6
F1.2260551344802983
sg7
F0.04745977793886591
ssS'n_jets'
p20
(dp21
g5
F0.045404589697341846
sg6
F1.1872257245958984
sg7
F0.04691595439340146
ssS'pt2'
p22
(dp23
g5
F0.04533733893400682
sg6
F1.1968992513024699
sg7
F0.04685701612770221
ssS'pt1'
p24
(dp25
g5
F0.04546491957073395
sg6
F1.1952683933991128
sg7
F0.046979917860971554
sss.