(dp0
S'CRWZ'
p1
(dp2
S'm_ll'
p3
(dp4
S'erUp'
p5
F0.044139314775310634
sS'value'
p6
F1.2031816226698109
sS'erDown'
p7
F0.045618938049961644
ssS'eta1'
p8
(dp9
g5
F0.044479201174095984
sg6
F1.2167597277981854
sg7
F0.045935870046580174
ssS'eta2'
p10
(dp11
g5
F0.04450366256289873
sg6
F1.2222211883214247
sg7
F0.045961611976530925
ssS'ht'
p12
(dp13
g5
F0.04485904809938379
sg6
F1.2287544457612323
sg7
F0.0463105429743802
ssS'met'
p14
(dp15
g5
F0.044513375632438956
sg6
F1.2059812021193355
sg7
F0.04596809182181394
ssS'phi2'
p16
(dp17
g5
F0.04456279956140463
sg6
F1.2202430833906515
sg7
F0.04601993301116214
ssS'phi1'
p18
(dp19
g5
F0.044885185699904406
sg6
F1.2341291881393865
sg7
F0.04633452240372793
ssS'n_jets'
p20
(dp21
g5
F0.044405190465259814
sg6
F1.1994642560921027
sg7
F0.04585917970069486
ssS'pt2'
p22
(dp23
g5
F0.044388819733323315
sg6
F1.2067617626937768
sg7
F0.045847921246342294
ssS'pt1'
p24
(dp25
g5
F0.04444929446948498
sg6
F1.2092869123618926
sg7
F0.04590641810749663
sss.