(dp0
S'CRWZ'
p1
(dp2
S'm_ll'
p3
(dp4
S'erUp'
p5
F0.0449822686492487
sS'value'
p6
F1.221377027376773
sS'erDown'
p7
F0.04648366901865586
ssS'eta1'
p8
(dp9
g5
F0.045249466786866366
sg6
F1.2331347261462138
sg7
F0.04672834416297822
ssS'eta2'
p10
(dp11
g5
F0.045430112242717646
sg6
F1.2284754246631722
sg7
F0.046906985935556644
ssS'ht'
p12
(dp13
g5
F0.045640082403923365
sg6
F1.2429666861861501
sg7
F0.04711076549141158
ssS'met'
p14
(dp15
g5
F0.0453327628401301
sg6
F1.2208317251386118
sg7
F0.04681097131536194
ssS'phi2'
p16
(dp17
g5
F0.04540140090858635
sg6
F1.23921731291823
sg7
F0.04687509752301455
ssS'phi1'
p18
(dp19
g5
F0.04572817477778135
sg6
F1.255146122344712
sg7
F0.04718656280926958
ssS'n_jets'
p20
(dp21
g5
F0.045221597436685634
sg6
F1.215002125450215
sg7
F0.04670070138838045
ssS'pt2'
p22
(dp23
g5
F0.04519602501161546
sg6
F1.2237113630523242
sg7
F0.046678147716686214
ssS'pt1'
p24
(dp25
g5
F0.04528220935792637
sg6
F1.2239976616680013
sg7
F0.0467615687558367
sss.