(dp0
S'CRZZ'
p1
(dp2
S'm_ll'
p3
(dp4
S'erUp'
p5
F0.10061520617742725
sS'value'
p6
F1.488504563175839
sS'erDown'
p7
F0.1076252776795199
ssS'eta1'
p8
(dp9
g5
F0.07257055764671128
sg6
F1.6400000000000001
sg7
F0.15083074641464278
ssS'eta2'
p10
(dp11
g5
F0.10298899852859256
sg6
F1.5596591073658757
sg7
F0.10897457767308194
ssS'ht'
p12
(dp13
g5
F0.036347238651022185
sg6
F1.6400000000000001
sg7
F0.0
ssS'met'
p14
(dp15
g5
F0.10386769069771562
sg6
F1.5985327834554448
sg7
F0.10895719119691205
ssS'phi2'
p16
(dp17
g5
F0.07968652184858982
sg6
F1.6400000000000001
sg7
F0.13819961505272138
ssS'phi1'
p18
(dp19
g5
F0.06911482347633635
sg6
F1.6400000000000001
sg7
F0.15781350302642538
ssS'm_ll2'
p20
(dp21
g5
F0.102544086111513
sg6
F1.5454194389915927
sg7
F0.1087964983318579
ssS'n_jets'
p22
(dp23
g5
F0.09973788796316962
sg6
F1.4615817194713387
sg7
F0.10694638934933054
ssS'pt2'
p24
(dp25
g5
F0.10123540146249788
sg6
F1.503574297137308
sg7
F0.10809207319138081
ssS'pt1'
p26
(dp27
g5
F0.10259390170342053
sg6
F1.5467220320460868
sg7
F0.1088234223589779
sss.