(dp0
S'CRZZ'
p1
(dp2
S'm_ll'
p3
(dp4
S'erUp'
p5
F0.09991717250954979
sS'value'
p6
F1.4685554005746253
sS'erDown'
p7
F0.10708399803625657
ssS'eta1'
p8
(dp9
g5
F0.10248394422592466
sg6
F1.5450767547066342
sg7
F0.10873983983553548
ssS'eta2'
p10
(dp11
g5
F0.10041455765254792
sg6
F1.4810663113900577
sg7
F0.10748904235724033
ssS'ht'
p12
(dp13
g5
F0.10327047069054696
sg6
F1.5693912439362356
sg7
F0.10905765749862728
ssS'met'
p14
(dp15
g5
F0.10165728360809956
sg6
F1.5066857701765706
sg7
F0.10848502893701406
ssS'phi2'
p16
(dp17
g5
F0.1011980613114547
sg6
F1.4985902331916803
sg7
F0.10811132649303046
ssS'phi1'
p18
(dp19
g5
F0.10179732589441937
sg6
F1.5203851652053448
sg7
F0.10844399894171586
ssS'm_ll2'
p20
(dp21
g5
F0.10008795018259797
sg6
F1.472717984189209
sg7
F0.1072282028895919
ssS'n_jets'
p22
(dp23
g5
F0.09974271066991602
sg6
F1.4616742858403464
sg7
F0.10695069666576895
ssS'pt2'
p24
(dp25
g5
F0.09989138615853532
sg6
F1.465994234409052
sg7
F0.10707376061633411
ssS'pt1'
p26
(dp27
g5
F0.10046916507100301
sg6
F1.4810635750606922
sg7
F0.10754376685883504
sss.