(dp0
S'CRZZ'
p1
(dp2
S'm_ll'
p3
(dp4
I0
(dp5
S'erUp'
p6
F0.0999741705528776
sS'value'
p7
F1.4701120606068008
sS'erDown'
p8
F0.10713072738006146
ssI1
(dp9
g6
F0.0999782713111288
sg7
F1.4700398753082005
sg8
F0.10713561795641025
ssI2
(dp10
g6
F0.0999682467613856
sg7
F1.4702295841209174
sg8
F0.10712344368951987
ssI3
(dp11
g6
F0.09997482653494649
sg7
F1.4701768206827335
sg8
F0.10713103731781715
ssI4
(dp12
g6
F0.0999793453299227
sg7
F1.4701253682797422
sg8
F0.10713619370518113
ssI5
(dp13
g6
F0.09996389010573647
sg7
F1.4701926403684917
sg8
F0.10711915702146424
ssI6
(dp14
g6
F0.09997165015691967
sg7
F1.470027415082542
sg8
F0.10712843133380856
ssI7
(dp15
g6
F0.09997643141867663
sg7
F1.469944774487904
sg8
F0.10713405288395261
ssI8
(dp16
g6
F0.0999665691646201
sg7
F1.4701891395742939
sg8
F0.1071218690725706
sssS'eta1'
p17
(dp18
I0
(dp19
g6
F0.10330946657064555
sg7
F1.57621711084888
sg8
F0.10893632215292803
ssI1
(dp20
g6
F0.10331797502783324
sg7
F1.5761425373466724
sg8
F0.10894739156577593
ssI2
(dp21
g6
F0.10329856027454332
sg7
F1.5761510110852246
sg8
F0.10892670822132455
ssI3
(dp22
g6
F0.10331475805590862
sg7
F1.5758850956751544
sg8
F0.10895033454318037
ssI4
(dp23
g6
F0.10332463369470046
sg7
F1.575906843257483
sg8
F0.1089605426871243
ssI5
(dp24
g6
F0.10329753933276176
sg7
F1.5756371347583442
sg8
F0.10893788075343958
ssI6
(dp25
g6
F0.10330303964852283
sg7
F1.5765678012635902
sg8
F0.10892104245001111
ssI7
(dp26
g6
F0.10330977353003168
sg7
F1.5763859316657094
sg8
F0.10893270812260392
ssI8
(dp27
g6
F0.10329372939042525
sg7
F1.576619097473404
sg8
F0.10890991555260765
sssS'eta2'
p28
(dp29
I0
(dp30
g6
F0.10133730057521162
sg7
F1.5084454494481512
sg8
F0.10813678441744834
ssI1
(dp31
g6
F0.1013413326638013
sg7
F1.5084354223463303
sg8
F0.10814136724073342
ssI2
(dp32
g6
F0.10133111346656931
sg7
F1.5084306726504162
sg8
F0.10813022889348933
ssI3
(dp33
g6
F0.10133596637999909
sg7
F1.508369635127662
sg8
F0.10813646041748104
ssI4
(dp34
g6
F0.10134034557006899
sg7
F1.5083716550198374
sg8
F0.10814125228433769
ssI5
(dp35
g6
F0.10132500073507056
sg7
F1.5082858252826208
sg8
F0.10812568842258852
ssI6
(dp36
g6
F0.10133693543512656
sg7
F1.5084946994965553
sg8
F0.10813553860572567
ssI7
(dp37
g6
F0.1013411485303588
sg7
F1.5084883487468557
sg8
F0.10814025767946278
ssI8
(dp38
g6
F0.10133065338210656
sg7
F1.5084849879195514
sg8
F0.10812884177750015
sssS'ht'
p39
(dp40
I0
(dp41
g6
F0.10379920951048005
sg7
F1.6011041555940067
sg8
F0.10881264656632084
ssI1
(dp42
g6
F0.10386699933419541
sg7
F1.6053665174913774
sg8
F0.10876587740081067
ssI2
(dp43
g6
F0.10371580894292265
sg7
F1.5961551960864007
sg8
F0.10885935629149412
ssI3
(dp44
g6
F0.10383922835325232
sg7
F1.603460935028313
sg8
F0.10879010054152327
ssI4
(dp45
g6
F0.10390552122831953
sg7
F1.6078513825375689
sg8
F0.1087366446225817
ssI5
(dp46
g6
F0.10375024089062612
sg7
F1.598222253824239
sg8
F0.10884000439335284
ssI6
(dp47
g6
F0.10375425969060581
sg7
F1.5985402166821217
sg8
F0.10883517590237068
ssI7
(dp48
g6
F0.10382281721753261
sg7
F1.602641648066666
sg8
F0.1087951546366479
ssI8
(dp49
g6
F0.1036716330834564
sg7
F1.5937967223661411
sg8
F0.10887574106872511
sssS'met'
p50
(dp51
I0
(dp52
g6
F0.10270833336835872
sg7
F1.5497063607245236
sg8
F0.10888485572525841
ssI1
(dp53
g6
F0.10271808059802301
sg7
F1.549660518114828
sg8
F0.10889638503736387
ssI2
(dp54
g6
F0.10269648720097568
sg7
F1.5497955276509303
sg8
F0.10887079256039112
ssI3
(dp55
g6
F0.10271143545013195
sg7
F1.5497822157334828
sg8
F0.1088866857385482
ssI4
(dp56
g6
F0.10272111910683868
sg7
F1.5497688428792518
sg8
F0.10889734928666028
ssI5
(dp57
g6
F0.10269451650637951
sg7
F1.549736858873489
sg8
F0.10886943518621739
ssI6
(dp58
g6
F0.10270421035094657
sg7
F1.5496227584837476
sg8
F0.10888229191104126
ssI7
(dp59
g6
F0.10271357791871938
sg7
F1.5495302906182629
sg8
F0.10889418927353622
ssI8
(dp60
g6
F0.10269224061238158
sg7
F1.5497693017952257
sg8
F0.10886646350098128
sssS'phi2'
p61
(dp62
I0
(dp63
g6
F0.10277055794879342
sg7
F1.546718575239623
sg8
F0.10900832557254758
ssI1
(dp64
g6
F0.10277557762029499
sg7
F1.5472863742641063
sg8
F0.109002829927898
ssI2
(dp65
g6
F0.10276384270788963
sg7
F1.5461708995518941
sg8
F0.10901157641756298
ssI3
(dp66
g6
F0.10277058580252008
sg7
F1.547256390349341
sg8
F0.10899803977216149
ssI4
(dp67
g6
F0.1027751371964638
sg7
F1.5477776977864401
sg8
F0.10899304147607469
ssI5
(dp68
g6
F0.10275920390428084
sg7
F1.5466585047353316
sg8
F0.10899712961550745
ssI6
(dp69
g6
F0.10276913277322852
sg7
F1.5461227988066162
sg8
F0.10901802474058475
ssI7
(dp70
g6
F0.10277468664659395
sg7
F1.5467381852965396
sg8
F0.10901218911410937
ssI8
(dp71
g6
F0.10276200581918982
sg7
F1.5455309355650348
sg8
F0.10902166693408066
sssS'phi1'
p72
(dp73
I0
(dp74
g6
F0.10386913707226908
sg7
F1.6050133953774994
sg8
F0.10877788032139524
ssI1
(dp75
g6
F0.10387276656396116
sg7
F1.6050403031683718
sg8
F0.1087811664318794
ssI2
(dp76
g6
F0.1038633016260655
sg7
F1.6050690579123816
sg8
F0.10877011800082581
ssI3
(dp77
g6
F0.10386624271560163
sg7
F1.6052728195676649
sg8
F0.10876752121618627
ssI4
(dp78
g6
F0.10386938190160833
sg7
F1.6053202457024025
sg8
F0.1087694001303301
ssI5
(dp79
g6
F0.10385670934402569
sg7
F1.6051959169595182
sg8
F0.10875911179260678
ssI6
(dp80
g6
F0.1038716511690938
sg7
F1.6047608619125893
sg8
F0.10878756959321811
ssI7
(dp81
g6
F0.10387549928878093
sg7
F1.6047584741987828
sg8
F0.10879199550259488
ssI8
(dp82
g6
F0.10386541167782615
sg7
F1.604865206349915
sg8
F0.10877820202003474
sssS'm_ll2'
p83
(dp84
I0
(dp85
g6
F0.10032669845421771
sg7
F1.4796279382393578
sg8
F0.10741541076354144
ssI1
(dp86
g6
F0.10033620525841203
sg7
F1.4797617971331334
sg8
F0.10742409541359788
ssI2
(dp87
g6
F0.1003132169134402
sg7
F1.4794022304442729
sg8
F0.10740326012210977
ssI3
(dp88
g6
F0.10032817936059923
sg7
F1.479551442068947
sg8
F0.10741756564623395
ssI4
(dp89
g6
F0.10033899267428725
sg7
F1.479718538289569
sg8
F0.10742746046568485
ssI5
(dp90
g6
F0.10030813507254233
sg7
F1.4792144776216154
sg8
F0.10739924835005543
ssI6
(dp91
g6
F0.10032397601665743
sg7
F1.4797119290966012
sg8
F0.10741191346511036
ssI7
(dp92
g6
F0.10033230261547343
sg7
F1.4798111081635532
sg8
F0.10741965547840326
ssI8
(dp93
g6
F0.10031213815680773
sg7
F1.479524760618225
sg8
F0.1074011119695717
sssS'n_jets'
p94
(dp95
I0
(dp96
g6
F0.0997378517961367
sg7
F1.461581683243092
sg8
F0.10694642555581657
ssI1
(dp97
g6
F0.0997438168955489
sg7
F1.4616374175750322
sg8
F0.10695229167161724
ssI2
(dp98
g6
F0.09973353077927594
sg7
F1.4615475241567322
sg8
F0.1069419251994641
ssI3
(dp99
g6
F0.09974061999669592
sg7
F1.4615894198641561
sg8
F0.106949316201147
ssI4
(dp100
g6
F0.09974484539781225
sg7
F1.461621969410256
sg8
F0.10695357689983775
ssI5
(dp101
g6
F0.09972892047722848
sg7
F1.4614477643396775
sg8
F0.10693764451345444
ssI6
(dp102
g6
F0.09973559600784898
sg7
F1.461583503532163
sg8
F0.10694396416956087
ssI7
(dp103
g6
F0.09974262500136954
sg7
F1.4616536000851352
sg8
F0.10695109355923638
ssI8
(dp104
g6
F0.09973069907743648
sg7
F1.4615435303022546
sg8
F0.10693895524614039
sssS'pt2'
p105
(dp106
I0
(dp107
g6
F0.10077749655360635
sg7
F1.4900622748281087
sg8
F0.10777312159608732
ssI1
(dp108
g6
F0.1007865637609664
sg7
F1.4901866745507168
sg8
F0.10778147851905517
ssI2
(dp109
g6
F0.10076602765702569
sg7
F1.489864807796805
sg8
F0.10776310384860377
ssI3
(dp110
g6
F0.10078049340844597
sg7
F1.489957244342242
sg8
F0.10777734677765838
ssI4
(dp111
g6
F0.1007910235308318
sg7
F1.4901177327484927
sg8
F0.10778685982927683
ssI5
(dp112
g6
F0.10076240381809476
sg7
F1.4896505709291392
sg8
F0.10776129212861774
ssI6
(dp113
g6
F0.10077328708791478
sg7
F1.4901645174892213
sg8
F0.10776765485890616
ssI7
(dp114
g6
F0.10078113112821785
sg7
F1.4902550372434598
sg8
F0.10777500133488349
ssI8
(dp115
g6
F0.10076328037163562
sg7
F1.49000085470687
sg8
F0.10775891485736744
sssS'pt1'
p116
(dp117
I0
(dp118
g6
F0.10090479240496064
sg7
F1.4927864689210792
sg8
F0.10787523279048328
ssI1
(dp119
g6
F0.10087879295127467
sg7
F1.4919364313505115
sg8
F0.10785764367563622
ssI2
(dp120
g6
F0.10093961446532074
sg7
F1.4939160489057006
sg8
F0.10789828991724604
ssI3
(dp121
g6
F0.1008922463106805
sg7
F1.4924062429287637
sg8
F0.10786642164570193
ssI4
(dp122
g6
F0.10086450353628185
sg7
F1.4915233176694342
sg8
F0.10784749858007903
ssI5
(dp123
g6
F0.10092367376487399
sg7
F1.4934960626988807
sg8
F0.1078863043470688
ssI6
(dp124
g6
F0.10091808326450757
sg7
F1.493204595559381
sg8
F0.10788415655002459
ssI7
(dp125
g6
F0.10089437939356505
sg7
F1.492403099333612
sg8
F0.1078685257279246
ssI8
(dp126
g6
F0.10095027291133785
sg7
F1.4942842382526602
sg8
F0.10790525225798508
ssss.