(dp0
S'EM'
p1
(dp2
S'deltaR2_g1'
p3
(F0.9601886902945849
cnumpy.core.multiarray
scalar
p4
(cnumpy
dtype
p5
(S'f8'
p6
I0
I1
tp7
Rp8
(I3
S'<'
p9
NNNI-1
I-1
I0
tp10
bS'\x95\xa5 \x9fu?\xa6?'
p11
tp12
Rp13
tp14
sS'm_ll'
p15
(F0.9601886946316873
g4
(g8
S'\xbd\x14\x0e\xa6u?\xa6?'
p16
tp17
Rp18
tp19
sS'eta1'
p20
(F0.9601887008115673
g4
(g8
S'\x01\x92\x8d\xa5u?\xa6?'
p21
tp22
Rp23
tp24
sS'eta2'
p25
(F0.9601887091066622
g4
(g8
S'\x80\xc0\xff\xa1u?\xa6?'
p26
tp27
Rp28
tp29
sS'deltaRLL'
p30
(F0.9601887188214453
g4
(g8
S'\xca~\xce\xafu?\xa6?'
p31
tp32
Rp33
tp34
sS'ht'
p35
(F0.9601887056080685
g4
(g8
S'j\x89\x17\x9fu?\xa6?'
p36
tp37
Rp38
tp39
sS'n_vtx'
p40
(F0.9601888983776953
g4
(g8
S'D\xd7\xe0\xa4u?\xa6?'
p41
tp42
Rp43
tp44
sS'met'
p45
(F0.9601886767230161
g4
(g8
S'k\x86p\xa8u?\xa6?'
p46
tp47
Rp48
tp49
sS'pt_g1'
p50
(F0.9601886599010755
g4
(g8
S'\xafc\x90\xa2u?\xa6?'
p51
tp52
Rp53
tp54
sS'phi2'
p55
(F0.9601886844496829
g4
(g8
S'\xf5\xa7\xfb\xa3u?\xa6?'
p56
tp57
Rp58
tp59
sS'phi1'
p60
(F0.9601886844496829
g4
(g8
S'\xf5\xa7\xfb\xa3u?\xa6?'
p61
tp62
Rp63
tp64
sS'nElectrons'
p65
(F0.9601890191091464
g4
(g8
S'\x93\t\x9f\xabu?\xa6?'
p66
tp67
Rp68
tp69
sS'deltaR1_g1'
p70
(F0.9601886588057784
g4
(g8
S'\xc8l3\xabu?\xa6?'
p71
tp72
Rp73
tp74
sS'n_jets'
p75
(F0.9601886827328345
g4
(g8
S'\xae\xb6%\xa3u?\xa6?'
p76
tp77
Rp78
tp79
sS'nMuons'
p80
(F0.9601890102284867
g4
(g8
S'w\xb7\x06\xafu?\xa6?'
p81
tp82
Rp83
tp84
sS'pt2'
p85
(F0.9601886938861889
g4
(g8
S'\xadMK\xa6u?\xa6?'
p86
tp87
Rp88
tp89
sS'pt1'
p90
(F0.9601886847679516
g4
(g8
S'\xd4B\xfb\xa4u?\xa6?'
p91
tp92
Rp93
tp94
sS'n_photons'
p95
(F0.960189464179475
g4
(g8
S'\xd6\x16\xd9\xabu?\xa6?'
p96
tp97
Rp98
tp99
ss.