(dp0
S'EM'
p1
(dp2
S'm_ll'
p3
(F0.9354411731097043
cnumpy.core.multiarray
scalar
p4
(cnumpy
dtype
p5
(S'f8'
p6
I0
I1
tp7
Rp8
(I3
S'<'
p9
NNNI-1
I-1
I0
tp10
bS'\xfeD~U\xf1W\xa3?'
p11
tp12
Rp13
tp14
sS'eta1'
p15
(F0.9354411944238742
g4
(g8
S'\xb6N\tT\xf1W\xa3?'
p16
tp17
Rp18
tp19
sS'eta2'
p20
(F0.935441185920637
g4
(g8
S'\x93&\x07T\xf1W\xa3?'
p21
tp22
Rp23
tp24
sS'ht'
p25
(F0.9354412355541545
g4
(g8
S'\xa7\xa9\xb0O\xf1W\xa3?'
p26
tp27
Rp28
tp29
sS'met'
p30
(F0.9354411481104175
g4
(g8
S'\x16\xd1\x05V\xf1W\xa3?'
p31
tp32
Rp33
tp34
sS'pt_g1'
p35
(F0.9354411437954581
g4
(g8
S'\xa0\x84\xb9Q\xf1W\xa3?'
p36
tp37
Rp38
tp39
sS'phi2'
p40
(F0.9354412269914877
g4
(g8
S'\xd5\x8e\x97S\xf1W\xa3?'
p41
tp42
Rp43
tp44
sS'phi1'
p45
(F0.9354412269914877
g4
(g8
S'\xd5\x8e\x97S\xf1W\xa3?'
p46
tp47
Rp48
tp49
sS'n_jets'
p50
(F0.9354408780622299
g4
(g8
S'o\xe8!R\xf1W\xa3?'
p51
tp52
Rp53
tp54
sS'pt2'
p55
(F0.9354411682936236
g4
(g8
S'\xbbafR\xf1W\xa3?'
p56
tp57
Rp58
tp59
sS'pt1'
p60
(F0.9354411508745037
g4
(g8
S'#~\xd5T\xf1W\xa3?'
p61
tp62
Rp63
tp64
sS'n_photons'
p65
(F0.9354405008585375
g4
(g8
S'\xdcr\x1fX\xf1W\xa3?'
p66
tp67
Rp68
tp69
ss.