(dp0
I100
(F1521.11
F15.4038
tp1
sI105
(F1233.18
F15.4059
tp2
sI110
(F1013.76
F15.4088
tp3
sI115
(F832.656
F15.1503
tp4
sI120
(F689.799
F15.044
tp5
sI125
(F574.981
F14.9895
tp6
sI130
(F481.397
F14.8906
tp7
sI135
(F405.159
F14.8952
tp8
sI140
(F342.865
F14.9119
tp9
sI145
(F291.752
F14.8022
tp10
sI150
(F249.409
F14.7477
tp11
sI155
(F214.221
F14.5928
tp12
sI160
(F184.623
F14.5821
tp13
sI165
(F159.614
F14.7859
tp14
sI170
(F139.252
F14.547
tp15
sI175
(F121.416
F14.6341
tp16
sI180
(F106.194
F14.2033
tp17
sI185
(F93.3347
F14.4893
tp18
sI190
(F82.2541
F14.4677
tp19
sI195
(F72.7397
F14.4452
tp20
sI200
(F64.5085
F14.4098
tp21
sI205
(F57.2279
F14.4191
tp22
sI210
(F50.9226
F14.2457
tp23
sI215
(F45.3761
F14.344
tp24
sI220
(F40.5941
F14.2634
tp25
sI225
(F36.3818
F14.2189
tp26
sI230
(F32.6679
F14.1592
tp27
sI235
(F29.3155
F14.2233
tp28
sI240
(F26.4761
F14.1723
tp29
sI245
(F23.8853
F13.9482
tp30
sI250
(F21.5949
F14.0595
tp31
sI255
(F19.5614
F13.8755
tp32
sI260
(F17.6836
F13.9505
tp33
sI265
(F16.112
F13.9531
tp34
sI270
(F14.6459
F13.9278
tp35
sI275
(F13.3231
F14.2549
tp36
sI280
(F12.1575
F14.1584
tp37
sI285
(F11.0925
F14.0904
tp38
sI290
(F10.1363
F13.8967
tp39
sI295
(F9.29002
F13.9107
tp40
sI300
(F8.51615
F13.9223
tp41
sI305
(F7.81428
F13.8996
tp42
sI310
(F7.17876
F13.9357
tp43
sI315
(F6.60266
F13.9256
tp44
sI320
(F6.08444
F13.7957
tp45
sI325
(F5.60471
F13.8144
tp46
sI330
(F5.17188
F13.6954
tp47
sI335
(F4.77871
F13.7554
tp48
sI340
(F4.41629
F13.7945
tp49
sI345
(F4.08881
F13.7075
tp50
sI350
(F3.78661
F13.6877
tp51
sI355
(F3.50911
F13.8089
tp52
sI360
(F3.25619
F13.8002
tp53
sI365
(F3.02472
F13.7093
tp54
sI370
(F2.8077
F13.8064
tp55
sI375
(F2.61162
F13.8477
tp56
sI380
(F2.43031
F13.6999
tp57
sI385
(F2.26365
F13.728
tp58
sI390
(F2.10786
F13.732
tp59
sI395
(F1.9665
F13.4737
tp60
sI400
(F1.83537
F13.6985
tp61
sI405
(F1.70927
F13.7114
tp62
sI410
(F1.60378
F13.5468
tp63
sI415
(F1.49798
F13.4453
tp64
sI420
(F1.39688
F13.6719
tp65
sI425
(F1.31169
F13.5013
tp66
sI430
(F1.22589
F13.3237
tp67
sI435
(F1.14553
F13.5478
tp68
sI440
(F1.07484
F13.7238
tp69
sI445
(F1.01019
F13.4187
tp70
sI450
(F0.948333
F13.4559
tp71
sI455
(F0.890847
F13.4587
tp72
sI460
(F0.836762
F13.4468
tp73
sI465
(F0.787221
F13.4149
tp74
sI470
(F0.740549
F13.4127
tp75
sI475
(F0.697075
F13.3926
tp76
sI480
(F0.655954
F13.4392
tp77
sI485
(F0.618562
F13.3705
tp78
sI490
(F0.582467
F13.3914
tp79
sI495
(F0.549524
F13.3691
tp80
sI500
(F0.51848
F13.3797
tp81
sI505
(F0.489324
F13.3608
tp82
sI510
(F0.462439
F13.3046
tp83
sI515
(F0.436832
F13.3703
tp84
sI520
(F0.412828
F13.272
tp85
sI525
(F0.390303
F13.3443
tp86
sI530
(F0.368755
F13.3769
tp87
sI535
(F0.348705
F13.2706
tp88
sI540
(F0.330157
F13.2981
tp89
sI545
(F0.312672
F13.277
tp90
sI550
(F0.296128
F13.2687
tp91
sI555
(F0.280734
F13.2363
tp92
sI560
(F0.266138
F13.193
tp93
sI565
(F0.251557
F13.1731
tp94
sI570
(F0.238537
F13.3409
tp95
sI575
(F0.226118
F13.2741
tp96
sI580
(F0.214557
F13.1697
tp97
sI585
(F0.203566
F13.3257
tp98
sI590
(F0.193079
F13.2037
tp99
sI595
(F0.183604
F13.0973
tp100
sI600
(F0.174599
F13.2074
tp101
sI605
(F0.166131
F13.0154
tp102
sI610
(F0.158242
F13.142
tp103
sI615
(F0.150275
F13.285
tp104
sI620
(F0.142787
F13.0642
tp105
sI625
(F0.136372
F12.7962
tp106
sI630
(F0.129886
F13.2957
tp107
sI635
(F0.123402
F13.016
tp108
sI640
(F0.11795
F12.7132
tp109
sI645
(F0.112008
F12.808
tp110
sI650
(F0.107045
F12.9232
tp111
sI655
(F0.102081
F13.0012
tp112
sI660
(F0.09725
F12.9038
tp113
sI665
(F0.0927515
F12.9548
tp114
sI670
(F0.0885084
F13.0218
tp115
sI675
(F0.0844877
F13.0703
tp116
sI680
(F0.0806192
F13.1131
tp117
sI685
(F0.0769099
F13.1517
tp118
sI690
(F0.0734901
F13.2344
tp119
sI695
(F0.0701805
F13.2716
tp120
sI700
(F0.0670476
F13.3429
tp121
sI705
(F0.0641426
F13.363
tp122
sI710
(F0.0612942
F13.3941
tp123
sI715
(F0.0585678
F13.4663
tp124
sI720
(F0.0560753
F13.4984
tp125
sI725
(F0.0536438
F13.5804
tp126
sI730
(F0.0513219
F13.5682
tp127
sI735
(F0.0491001
F13.6268
tp128
sI740
(F0.0470801
F13.6895
tp129
sI745
(F0.045061
F13.6816
tp130
sI750
(F0.0431418
F13.7455
tp131
sI755
(F0.0413447
F13.7833
tp132
sI760
(F0.0396264
F13.8518
tp133
sI765
(F0.0379036
F13.8537
tp134
sI770
(F0.0363856
F13.9334
tp135
sI775
(F0.0348796
F13.9597
tp136
sI780
(F0.0334669
F14.0267
tp137
sI785
(F0.0320548
F14.0406
tp138
sI790
(F0.0307373
F14.115
tp139
sI795
(F0.0295348
F14.1397
tp140
sI800
(F0.0283338
F14.171
tp141
sI805
(F0.0272206
F14.241
tp142
sI810
(F0.0261233
F14.2891
tp143
sI815
(F0.0251107
F14.3632
tp144
sI820
(F0.0241099
F14.3805
tp145
sI825
(F0.0230866
F14.4428
tp146
sI830
(F0.0221834
F14.4791
tp147
sI835
(F0.0213766
F14.5511
tp148
sI840
(F0.0204715
F14.6131
tp149
sI845
(F0.0197653
F14.6602
tp150
sI850
(F0.0189612
F14.702
tp151
sI855
(F0.0182516
F14.7648
tp152
sI860
(F0.0175509
F14.7944
tp153
sI865
(F0.0168336
F14.8528
tp154
sI870
(F0.0162314
F14.8772
tp155
sI875
(F0.015625
F14.9567
tp156
sI880
(F0.0150143
F15.0389
tp157
sI885
(F0.0144112
F15.0614
tp158
sI890
(F0.0138979
F15.1
tp159
sI895
(F0.0133962
F15.1325
tp160
sI900
(F0.0128895
F15.2026
tp161
sI905
(F0.0123843
F15.2968
tp162
sI910
(F0.0119837
F15.3089
tp163
sI915
(F0.0114713
F15.3678
tp164
sI920
(F0.0110688
F15.4082
tp165
sI925
(F0.0106631
F15.4806
tp166
sI930
(F0.0102629
F15.5313
tp167
sI935
(F0.0098874
F15.6066
tp168
sI940
(F0.00952142
F15.6055
tp169
sI945
(F0.00916636
F15.6849
tp170
sI950
(F0.00883465
F15.7177
tp171
sI955
(F0.00851073
F15.8094
tp172
sI960
(F0.00820884
F15.844
tp173
sI965
(F0.00791403
F15.9216
tp174
sI970
(F0.00763112
F15.9742
tp175
sI975
(F0.00735655
F16.0548
tp176
sI980
(F0.00710317
F16.0626
tp177
sI985
(F0.00684867
F16.144
tp178
sI990
(F0.00660695
F16.1813
tp179
sI995
(F0.00637546
F16.2158
tp180
sI1000
(F0.00615134
F16.2953
tp181
sI1005
(F0.00593765
F16.3716
tp182
sI1010
(F0.00572452
F16.3857
tp183
sI1015
(F0.00553094
F16.4628
tp184
sI1020
(F0.00533968
F16.4963
tp185
sI1025
(F0.00514619
F16.5762
tp186
sI1030
(F0.00497235
F16.5838
tp187
sI1035
(F0.00479906
F16.6646
tp188
sI1040
(F0.00463806
F16.6947
tp189
sI1045
(F0.00447537
F16.7071
tp190
sI1050
(F0.00432261
F16.7859
tp191
sI1055
(F0.00417983
F16.8637
tp192
sI1060
(F0.00403886
F16.8981
tp193
sI1065
(F0.0038962
F16.9794
tp194
sI1070
(F0.00376343
F16.9764
tp195
sI1075
(F0.00364174
F17.0634
tp196
sI1080
(F0.00352093
F17.0908
tp197
sI1085
(F0.00339813
F17.1929
tp198
sI1090
(F0.00328695
F17.2274
tp199
sI1095
(F0.00317628
F17.2617
tp200
sI1100
(F0.00307413
F17.3377
tp201
sI1105
(F0.00297377
F17.3822
tp202
sI1110
(F0.00287148
F17.4725
tp203
sI1115
(F0.00278078
F17.5091
tp204
sI1120
(F0.00268873
F17.5883
tp205
sI1125
(F0.00260821
F17.6126
tp206
sI1130
(F0.00251529
F17.6836
tp207
sI1135
(F0.00243484
F17.7128
tp208
sI1140
(F0.00236295
F17.7977
tp209
sI1145
(F0.00228192
F17.8507
tp210
sI1150
(F0.00221047
F17.9259
tp211
sI1155
(F0.00213907
F18.0255
tp212
sI1160
(F0.00206845
F18.0518
tp213
sI1165
(F0.0020063
F18.0954
tp214
sI1170
(F0.00194569
F18.1194
tp215
sI1175
(F0.0018741
F18.2145
tp216
sI1180
(F0.00182266
F18.3074
tp217
sI1185
(F0.00176211
F18.3375
tp218
sI1190
(F0.00170006
F18.4075
tp219
sI1195
(F0.00164968
F18.4438
tp220
sI1200
(F0.00159844
F18.5209
tp221
sI1205
(F0.0015472
F18.5977
tp222
sI1210
(F0.00149657
F18.6485
tp223
sI1215
(F0.00145544
F18.7347
tp224
sI1220
(F0.00140288
F18.8774
tp225
sI1225
(F0.00136155
F18.989
tp226
sI1230
(F0.00131271
F18.8763
tp227
sI1235
(F0.0012717
F18.9588
tp228
sI1240
(F0.00123066
F19.049
tp229
sI1245
(F0.00119994
F19.1442
tp230
sI1250
(F0.0011583
F19.3006
tp231
sI1255
(F0.00112694
F19.4441
tp232
sI1260
(F0.00108716
F19.4141
tp233
sI1265
(F0.00105517
F19.6361
tp234
sI1270
(F0.00102241
F19.6297
tp235
sI1275
(F0.000991293
F19.762
tp236
sI1280
(F0.000961012
F19.7926
tp237
sI1285
(F0.000932394
F19.8682
tp238
sI1290
(F0.000903404
F19.9924
tp239
sI1295
(F0.000876957
F20.0777
tp240
sI1300
(F0.000850345
F20.1604
tp241
sI1305
(F0.00082443
F20.2883
tp242
sI1310
(F0.00079983
F20.373
tp243
sI1315
(F0.000775222
F20.4622
tp244
sI1320
(F0.000751372
F20.5919
tp245
sI1325
(F0.000728912
F20.6884
tp246
sI1330
(F0.000706867
F20.7763
tp247
sI1335
(F0.000685372
F20.8587
tp248
sI1340
(F0.000664649
F20.9879
tp249
sI1345
(F0.000644804
F21.1487
tp250
sI1350
(F0.000625155
F21.2761
tp251
sI1355
(F0.000606802
F21.3529
tp252
sI1360
(F0.000588512
F21.4428
tp253
sI1365
(F0.000570506
F21.6584
tp254
sI1370
(F0.000553379
F21.6036
tp255
sI1375
(F0.000536646
F21.775
tp256
sI1380
(F0.000521404
F21.8383
tp257
sI1385
(F0.000505008
F21.9675
tp258
sI1390
(F0.000490353
F22.1444
tp259
sI1395
(F0.000476164
F22.2016
tp260
sI1400
(F0.000461944
F22.2704
tp261
sI1405
(F0.000448172
F22.4911
tp262
sI1410
(F0.000435082
F22.5606
tp263
sI1415
(F0.000422967
F22.6095
tp264
sI1420
(F0.000410381
F22.797
tp265
sI1425
(F0.000398106
F22.8949
tp266
sI1430
(F0.000386792
F23.1319
tp267
sI1435
(F0.000375724
F23.1724
tp268
sI1440
(F0.000364616
F23.2234
tp269
sI1445
(F0.000353965
F23.4637
tp270
sI1450
(F0.000343923
F23.4948
tp271
sI1455
(F0.000333885
F23.5468
tp272
sI1460
(F0.000324344
F23.771
tp273
sI1465
(F0.0003153
F23.8004
tp274
sI1470
(F0.00030583
F24.0064
tp275
sI1475
(F0.000296811
F24.0314
tp276
sI1480
(F0.000288149
F23.9248
tp277
sI1485
(F0.000279711
F24.1257
tp278
sI1490
(F0.000271724
F24.1274
tp279
sI1495
(F0.000264275
F24.3545
tp280
sI1500
(F0.000256248
F24.372
tp281
sI1505
(F0.000248853
F24.5827
tp282
sI1510
(F0.000241844
F24.6187
tp283
sI1515
(F0.000234438
F24.8442
tp284
sI1520
(F0.000227374
F24.8909
tp285
sI1525
(F0.000221045
F25.0895
tp286
sI1530
(F0.000214431
F24.8728
tp287
sI1535
(F0.000208092
F25.1043
tp288
sI1540
(F0.000201748
F25.3207
tp289
sI1545
(F0.000196399
F25.5641
tp290
sI1550
(F0.000190474
F25.5213
tp291
sI1555
(F0.000185188
F25.7329
tp292
sI1560
(F0.000179263
F25.6931
tp293
sI1565
(F0.000174021
F25.9111
tp294
sI1570
(F0.000169176
F25.8106
tp295
sI1575
(F0.000163861
F26.0597
tp296
sI1580
(F0.000159583
F26.2958
tp297
sI1585
(F0.000154719
F26.195
tp298
sI1590
(F0.000150506
F26.4111
tp299
sI1595
(F0.000145626
F26.3077
tp300
sI1600
(F0.000141382
F26.5291
tp301
sI1605
(F0.000137131
F26.7424
tp302
sI1610
(F0.000132187
F26.668
tp303
sI1615
(F0.000127929
F26.9117
tp304
sI1620
(F0.000124086
F26.7738
tp305
sI1625
(F0.00011982
F27.0483
tp306
sI1630
(F0.000116042
F26.8071
tp307
sI1635
(F0.000112767
F27.127
tp308
sI1640
(F0.000108936
F26.9351
tp309
sI1645
(F0.000105746
F27.1783
tp310
sI1650
(F0.000102693
F27.292
tp311
sI1655
(F0.000100112
F27.4445
tp312
sI1660
(F9.75763e-05
F27.5431
tp313
sI1665
(F9.52062e-05
F27.6946
tp314
sI1670
(F9.29857e-05
F27.7869
tp315
sI1675
(F9.08285e-05
F27.9347
tp316
sI1680
(F8.87433e-05
F28.1539
tp317
sI1685
(F8.66618e-05
F28.3509
tp318
sI1690
(F8.46535e-05
F28.4432
tp319
sI1695
(F8.27102e-05
F28.591
tp320
sI1700
(F8.07774e-05
F28.7497
tp321
sI1705
(F7.8666e-05
F28.8194
tp322
sI1710
(F7.6572e-05
F29.0265
tp323
sI1715
(F7.45994e-05
F29.1193
tp324
sI1720
(F7.25199e-05
F29.3013
tp325
sI1725
(F7.05189e-05
F29.3697
tp326
sI1730
(F6.85712e-05
F29.4972
tp327
sI1735
(F6.67296e-05
F29.6167
tp328
sI1740
(F6.49184e-05
F29.7686
tp329
sI1745
(F6.30949e-05
F29.8524
tp330
sI1750
(F6.13637e-05
F29.9789
tp331
sI1755
(F5.97301e-05
F30.0928
tp332
sI1760
(F5.80751e-05
F30.2585
tp333
sI1765
(F5.65479e-05
F30.366
tp334
sI1770
(F5.49998e-05
F30.5241
tp335
sI1775
(F5.35686e-05
F30.6718
tp336
sI1780
(F5.20828e-05
F30.6799
tp337
sI1785
(F5.07079e-05
F30.9201
tp338
sI1790
(F4.93948e-05
F31.0043
tp339
sI1795
(F4.80635e-05
F31.138
tp340
sI1800
(F4.67492e-05
F31.2291
tp341
sI1805
(F4.55055e-05
F31.4321
tp342
sI1810
(F4.42835e-05
F31.5499
tp343
sI1815
(F4.30744e-05
F31.6302
tp344
sI1820
(F4.19954e-05
F31.7151
tp345
sI1825
(F4.08527e-05
F31.9048
tp346
sI1830
(F3.97561e-05
F31.9718
tp347
sI1835
(F3.87041e-05
F32.2028
tp348
sI1840
(F3.76008e-05
F32.268
tp349
sI1845
(F3.66914e-05
F32.4529
tp350
sI1850
(F3.56995e-05
F32.5039
tp351
sI1855
(F3.47689e-05
F32.6767
tp352
sI1860
(F3.38528e-05
F32.8878
tp353
sI1865
(F3.29644e-05
F32.8975
tp354
sI1870
(F3.20679e-05
F32.9608
tp355
sI1875
(F3.12583e-05
F33.1541
tp356
sI1880
(F3.04342e-05
F33.3117
tp357
sI1885
(F2.96516e-05
F33.2866
tp358
sI1890
(F2.88952e-05
F33.6279
tp359
sI1895
(F2.81145e-05
F33.6845
tp360
sI1900
(F2.73974e-05
F33.8247
tp361
sI1905
(F2.66796e-05
F33.9708
tp362
sI1910
(F2.59941e-05
F33.9526
tp363
sI1915
(F2.52784e-05
F34.1137
tp364
sI1920
(F2.46598e-05
F34.2714
tp365
sI1925
(F2.39932e-05
F34.2328
tp366
sI1930
(F2.33737e-05
F34.394
tp367
sI1935
(F2.27623e-05
F34.5138
tp368
sI1940
(F2.21454e-05
F34.6933
tp369
sI1945
(F2.15924e-05
F35.0815
tp370
sI1950
(F2.10232e-05
F34.9444
tp371
sI1955
(F2.05211e-05
F35.0155
tp372
sI1960
(F1.98996e-05
F35.2135
tp373
sI1965
(F1.9408e-05
F35.3328
tp374
sI1970
(F1.88974e-05
F35.4643
tp375
sI1975
(F1.84612e-05
F35.7904
tp376
sI1980
(F1.79562e-05
F35.8898
tp377
sI1985
(F1.75673e-05
F35.989
tp378
sI1990
(F1.70612e-05
F36.0953
tp379
sI1995
(F1.66228e-05
F36.4709
tp380
sI2000
(F1.62355e-05
F36.5277
tp381
s.