(dp0
I640
(dp1
I130
(F0.0196024
F0.00038770762763743215
tp2
sI5
(F0.019602599999999998
F0.0003877036719618826
tp3
sI530
(F0.0196039
F0.0003876779620381659
tp4
sI405
(F0.0196021
F0.00038771356130210536
tp5
sI280
(F0.0196021
F0.00038771356130210536
tp6
sI155
(F0.0196024
F0.00038770762763743215
tp7
sI30
(F0.0196028
F0.00038769971636704964
tp8
sI555
(F0.019605499999999998
F0.00038764632373568643
tp9
sI430
(F0.0196022
F0.0003877115833937007
tp10
sI305
(F0.019602
F0.00038771553923069076
tp11
sI180
(F0.0196023
F0.0003877096055054764
tp12
sI55
(F0.019602699999999997
F0.0003877016941543767
tp13
sI580
(F0.0195996
F0.00038266087063001285
tp14
sI455
(F0.0196023
F0.0003877096055054764
tp15
sI330
(F0.019602
F0.00038771553923069076
tp16
sI205
(F0.0196022
F0.0003877115833937007
tp17
sI80
(F0.019602599999999998
F0.0003877036719618826
tp18
sI605
(F0.0195958
F0.0003827350758836077
tp19
sI480
(F0.019602599999999998
F0.0003877036719618826
tp20
sI355
(F0.019602
F0.00038771553923069076
tp21
sI230
(F0.0196022
F0.0003877115833937007
tp22
sI105
(F0.0196025
F0.00038770564978956765
tp23
sI630
(F0.019597200000000002
F0.0003776049639744453
tp24
sI505
(F0.019603000000000002
F0.00038769576085293065
tp25
sI380
(F0.019602
F0.00038771553923069076
tp26
sI255
(F0.0196021
F0.00038771356130210536
tp27
ssI515
(dp28
I480
(F0.0560564
F0.00037997445429959826
tp29
sI130
(F0.056103900000000005
F0.00038143515869663245
tp30
sI355
(F0.0561054
F0.0003814249608772061
tp31
sI5
(F0.056103700000000006
F0.0003814365184470899
tp32
sI230
(F0.056104
F0.0003814344788250392
tp33
sI455
(F0.0560211
F0.0003802138836973926
tp34
sI105
(F0.056103900000000005
F0.00038143515869663245
tp35
sI330
(F0.056104799999999996
F0.0003814290399395417
tp36
sI205
(F0.056103900000000005
F0.00038143515869663245
tp37
sI430
(F0.056112
F0.0003813800969489592
tp38
sI80
(F0.056104
F0.0003814344788250392
tp39
sI305
(F0.0561045
F0.00038143107950342663
tp40
sI180
(F0.056103900000000005
F0.00038143515869663245
tp41
sI405
(F0.0561083
F0.000381405246639089
tp42
sI55
(F0.056104
F0.0003814344788250392
tp43
sI280
(F0.0561042
F0.0003814331190891234
tp44
sI505
(F0.056043
F0.00037649661866780864
tp45
sI155
(F0.056103900000000005
F0.00038143515869663245
tp46
sI380
(F0.0561064
F0.0003814181626338528
tp47
sI30
(F0.056104
F0.0003814344788250392
tp48
sI255
(F0.056104100000000004
F0.0003814337989558695
tp49
ssI390
(dp50
I130
(F0.19211
F0.0003773879548175524
tp51
sI355
(F0.1926504
F0.0003763293509901874
tp52
sI5
(F0.19190690000000002
F0.0003777873541805948
tp53
sI230
(F0.1930143
F0.0003761379338214837
tp54
sI105
(F0.1924095
F0.00037680052180375705
tp55
sI330
(F0.1924565
F0.0003767085029604092
tp56
sI205
(F0.1924126
F0.0003767944510910408
tp57
sI80
(F0.1928091
F0.00037653824430485905
tp58
sI305
(F0.1918322
F0.0003784557545604961
tp59
sI180
(F0.1927114
F0.0003762102293896469
tp60
sI55
(F0.1924086
F0.0003773220115940763
tp61
sI280
(F0.19242220000000002
F0.00037729534326080876
tp62
sI155
(F0.1927106
F0.00037621179115212135
tp63
sI380
(F0.192207
F0.0003730353212942297
tp64
sI30
(F0.1919081
F0.0003777849918789254
tp65
sI255
(F0.1923173
F0.0003769811660209456
tp66
ssI265
(dp67
I130
(F0.9200743
F0.0003727959796290365
tp68
sI5
(F0.9150303
F0.0003748509748802854
tp69
sI230
(F0.919574
F0.000372455071587496
tp70
sI105
(F0.915063
F0.0003748375794890625
tp71
sI205
(F0.9242243
F0.0003705810375251982
tp72
sI80
(F0.9150549
F0.00037484089752429066
tp73
sI180
(F0.9241313
F0.0003706183309666062
tp74
sI55
(F0.9200480999999999
F0.00037280659565516196
tp75
sI155
(F0.9200937
F0.0003727881192969803
tp76
sI30
(F0.9200411000000001
F0.00037280943210037034
tp77
sI255
(F0.91489
F0.00037195728448228746
tp78
ssI140
(dp79
I130
(F10.0079
F0.0003637626275242558
tp80
sI5
(F9.990914
F0.00036651301372426983
tp81
sI105
(F9.995629999999998
F0.00036635009499151133
tp82
sI80
(F10.002601
F0.0003661547631461057
tp83
sI55
(F9.971793
F0.00036740634307190294
tp84
sI30
(F9.991394
F0.0003667956643487385
tp85
ssI915
(dp86
I130
(F0.0027153
F0.0004051117740212868
tp87
sI5
(F0.0027153999999999998
F0.00040509685497532597
tp88
sI905
(F0.0027145000000000003
F0.0003683919690550746
tp89
sI780
(F0.0027148
F0.00040518638573743926
tp90
sI655
(F0.0027145999999999997
F0.0004052162381197967
tp91
sI530
(F0.0027145999999999997
F0.0004052162381197967
tp92
sI405
(F0.0027148
F0.00040518638573743926
tp93
sI280
(F0.002715
F0.00040515653775322286
tp94
sI155
(F0.0027151999999999996
F0.00040512669416617567
tp95
sI30
(F0.0027155
F0.00040508193702817164
tp96
sI805
(F0.002715
F0.00040515653775322286
tp97
sI680
(F0.0027145999999999997
F0.0004052162381197967
tp98
sI555
(F0.0027145999999999997
F0.0004052162381197967
tp99
sI430
(F0.0027147
F0.00040520131137878956
tp100
sI305
(F0.0027149
F0.0004051714611956242
tp101
sI180
(F0.0027151999999999996
F0.00040512669416617567
tp102
sI55
(F0.0027155
F0.00040508193702817164
tp103
sI830
(F0.0027155
F0.00040508193702817164
tp104
sI705
(F0.0027145999999999997
F0.0004052162381197967
tp105
sI580
(F0.0027145999999999997
F0.0004052162381197967
tp106
sI455
(F0.0027147
F0.00040520131137878956
tp107
sI330
(F0.0027149
F0.0004051714611956242
tp108
sI205
(F0.0027151000000000002
F0.0004051416154101138
tp109
sI80
(F0.0027153999999999998
F0.00040509685497532597
tp110
sI855
(F0.0027155
F0.00040508193702817164
tp111
sI730
(F0.0027147
F0.00040520131137878956
tp112
sI605
(F0.0027145999999999997
F0.0004052162381197967
tp113
sI480
(F0.0027147
F0.00040520131137878956
tp114
sI355
(F0.0027149
F0.0004051714611956242
tp115
sI230
(F0.0027151000000000002
F0.0004051416154101138
tp116
sI105
(F0.0027153
F0.0004051117740212868
tp117
sI880
(F0.0027087
F0.0004060988666149814
tp118
sI755
(F0.0027147
F0.00040520131137878956
tp119
sI630
(F0.0027145999999999997
F0.0004052162381197967
tp120
sI505
(F0.0027147
F0.00040520131137878956
tp121
sI380
(F0.0027148
F0.00040518638573743926
tp122
sI255
(F0.002715
F0.00040515653775322286
tp123
ssI790
(dp124
I130
(F0.0063917
F0.000391132249636247
tp125
sI5
(F0.0063919
F0.00039112001126425636
tp126
sI780
(F0.0063928000000000006
F0.00037542235014391184
tp127
sI655
(F0.0063915
F0.0003911444887741532
tp128
sI530
(F0.006391
F0.0003911750899702707
tp129
sI405
(F0.006391099999999999
F0.0003911689693479996
tp130
sI280
(F0.0063913
F0.0003911567286780467
tp131
sI155
(F0.006391600000000001
F0.00039113836910945613
tp132
sI30
(F0.006392
F0.0003911138923654568
tp133
sI680
(F0.0063917999999999996
F0.0003911261303545167
tp134
sI555
(F0.006391
F0.0003911750899702707
tp135
sI430
(F0.006391099999999999
F0.0003911689693479996
tp136
sI305
(F0.0063913
F0.0003911567286780467
tp137
sI180
(F0.0063915
F0.0003911444887741532
tp138
sI55
(F0.0063919
F0.00039112001126425636
tp139
sI705
(F0.0063925
F0.0003910833007430583
tp140
sI580
(F0.006391099999999999
F0.0003911689693479996
tp141
sI455
(F0.006391
F0.0003911750899702707
tp142
sI330
(F0.0063912000000000005
F0.0003911628489172612
tp143
sI205
(F0.0063915
F0.0003911444887741532
tp144
sI80
(F0.0063917999999999996
F0.0003911261303545167
tp145
sI730
(F0.0063944
F0.000390967096209183
tp146
sI605
(F0.006391099999999999
F0.0003911689693479996
tp147
sI480
(F0.006391
F0.0003911750899702707
tp148
sI355
(F0.0063912000000000005
F0.0003911628489172612
tp149
sI230
(F0.0063914
F0.000391150608630347
tp150
sI105
(F0.0063917
F0.000391132249636247
tp151
sI755
(F0.0063917999999999996
F0.0003911261303545167
tp152
sI630
(F0.0063913
F0.0003911567286780467
tp153
sI505
(F0.006391
F0.0003911750899702707
tp154
sI380
(F0.006391099999999999
F0.0003911689693479996
tp155
sI255
(F0.0063914
F0.000391150608630347
tp156
ssI665
(dp157
I130
(F0.0161123
F0.0003847991906804118
tp158
sI5
(F0.016112500000000002
F0.00038479441427463146
tp159
sI655
(F0.0161134
F0.00037856690704630937
tp160
sI530
(F0.0161127
F0.00038478963798742604
tp161
sI405
(F0.0161118
F0.0003848111322136571
tp162
sI280
(F0.0161119
F0.0003848087438477151
tp163
sI155
(F0.0161122
F0.000384801578927769
tp164
sI30
(F0.0161126
F0.0003847920261162072
tp165
sI555
(F0.0161134
F0.0003847729219159209
tp166
sI430
(F0.0161118
F0.0003848111322136571
tp167
sI305
(F0.0161119
F0.0003848087438477151
tp168
sI180
(F0.0161121
F0.00038480396720477154
tp169
sI55
(F0.016112500000000002
F0.00038479441427463146
tp170
sI580
(F0.0161148
F0.00038473949412961997
tp171
sI455
(F0.0161119
F0.0003848087438477151
tp172
sI330
(F0.0161118
F0.0003848111322136571
tp173
sI205
(F0.0161121
F0.00038480396720477154
tp174
sI80
(F0.016112400000000002
F0.0003847968024626995
tp175
sI605
(F0.0161184
F0.00038465356362914427
tp176
sI480
(F0.016111999999999998
F0.00038480635551142007
tp177
sI355
(F0.0161118
F0.0003848111322136571
tp178
sI230
(F0.016111999999999998
F0.00038480635551142007
tp179
sI105
(F0.0161123
F0.0003847991906804118
tp180
sI630
(F0.016112400000000002
F0.0003847968024626995
tp181
sI505
(F0.0161123
F0.0003847991906804118
tp182
sI380
(F0.0161118
F0.0003848111322136571
tp183
sI255
(F0.0161119
F0.0003848087438477151
tp184
ssI540
(dp185
I130
(F0.0449435
F0.00038270272675692814
tp186
sI5
(F0.044943399999999994
F0.00038270357827845694
tp187
sI530
(F0.044901
F0.00037638359947439915
tp188
sI405
(F0.0449455
F0.00038268569712207004
tp189
sI280
(F0.0449435
F0.00038270272675692814
tp190
sI155
(F0.044943399999999994
F0.00038270357827845694
tp191
sI30
(F0.0449437
F0.00038270102372523846
tp192
sI430
(F0.044947
F0.0003826729258904932
tp193
sI305
(F0.0449436
F0.00038270187523918863
tp194
sI180
(F0.044943399999999994
F0.00038270357827845694
tp195
sI55
(F0.0449437
F0.00038270102372523846
tp196
sI455
(F0.0449501
F0.0003826465347129372
tp197
sI330
(F0.044943800000000006
F0.00038270017221507746
tp198
sI205
(F0.044943399999999994
F0.00038270357827845694
tp199
sI80
(F0.0449436
F0.00038270187523918863
tp200
sI480
(F0.0449578
F0.000382580998180516
tp201
sI355
(F0.0449441
F0.00038269761770732977
tp202
sI230
(F0.044943399999999994
F0.00038270357827845694
tp203
sI105
(F0.0449435
F0.00038270272675692814
tp204
sI505
(F0.0448777
F0.0003810355700047017
tp205
sI380
(F0.0449446
F0.0003826933602701993
tp206
sI255
(F0.044943399999999994
F0.00038270357827845694
tp207
ssI415
(dp208
I130
(F0.1475078
F0.00037760715026595204
tp209
sI355
(F0.14734540000000002
F0.00037802333836007093
tp210
sI5
(F0.14730590000000002
F0.00037812470512043304
tp211
sI230
(F0.1473101
F0.00037811392429982734
tp212
sI105
(F0.1475076
F0.00037760766224926716
tp213
sI330
(F0.1472257
F0.00037833068547135456
tp214
sI205
(F0.14750919999999998
F0.0003776035664216198
tp215
sI80
(F0.14750729999999998
F0.00037760843022684306
tp216
sI305
(F0.1475178
F0.0003775815528702299
tp217
sI180
(F0.1475086
F0.00037760510234657505
tp218
sI405
(F0.147649
F0.00037318234461459273
tp219
sI55
(F0.147507
F0.00037760919820754266
tp220
sI280
(F0.1475138
F0.0003775917914120577
tp221
sI155
(F0.1474081
F0.000377862546223715
tp222
sI380
(F0.1474201
F0.0003778317882025586
tp223
sI30
(F0.1474067
F0.00037786613498572315
tp224
sI255
(F0.14731149999999998
F0.0003781103308295686
tp225
ssI290
(dp226
I130
(F0.648044
F0.00037188832857028227
tp227
sI5
(F0.6460202
F0.0003739821138719811
tp228
sI230
(F0.648161
F0.00037182119874537345
tp229
sI105
(F0.6480385
F0.0003718914848423357
tp230
sI205
(F0.6450941
F0.0003740539558492319
tp231
sI80
(F0.6420343000000001
F0.00037614812791154613
tp232
sI180
(F0.6480661
F0.00037187564663542806
tp233
sI55
(F0.6520304
F0.0003697680353554068
tp234
sI280
(F0.64509
F0.0003709559906369654
tp235
sI155
(F0.6460520000000001
F0.00037396370570789967
tp236
sI30
(F0.6460267
F0.0003739783510495774
tp237
sI255
(F0.645418
F0.00037386623862365164
tp238
ssI165
(dp239
I130
(F5.47306
F0.0003678563728517502
tp240
sI5
(F5.500358
F0.00036675794557372446
tp241
sI105
(F5.50133
F0.00036718393552104674
tp242
sI80
(F5.500872
F0.0003673235806977512
tp243
sI55
(F5.470674
F0.0003686017481575397
tp244
sI155
(F5.4733
F0.00036597665028410646
tp245
sI30
(F5.480534
F0.00036782912030105093
tp246
ssI940
(dp247
I130
(F0.0023022
F0.00039093041438623924
tp248
sI5
(F0.0023024
F0.0003908964558721334
tp249
sI905
(F0.0022961
F0.000391968990897609
tp250
sI780
(F0.0023017
F0.00039101533649042015
tp251
sI655
(F0.0023014999999999997
F0.0003910493156636976
tp252
sI530
(F0.0023016
F0.00039103232533889464
tp253
sI405
(F0.0023017
F0.00039101533649042015
tp254
sI280
(F0.0023019
F0.00039098136322168644
tp255
sI155
(F0.0023022
F0.00039093041438623924
tp256
sI30
(F0.0023025000000000003
F0.0003908794788273615
tp257
sI930
(F0.0022954
F0.00039208852487583866
tp258
sI805
(F0.0023018
F0.0003909983491180815
tp259
sI680
(F0.0023014999999999997
F0.0003910493156636976
tp260
sI555
(F0.0023016
F0.00039103232533889464
tp261
sI430
(F0.0023017
F0.00039101533649042015
tp262
sI305
(F0.0023019
F0.00039098136322168644
tp263
sI180
(F0.0023020999999999996
F0.0003909473958559576
tp264
sI55
(F0.0023024
F0.0003908964558721334
tp265
sI830
(F0.0023019
F0.00039098136322168644
tp266
sI705
(F0.0023016
F0.00039103232533889464
tp267
sI580
(F0.0023016
F0.00039103232533889464
tp268
sI455
(F0.0023017
F0.00039101533649042015
tp269
sI330
(F0.0023018
F0.0003909983491180815
tp270
sI205
(F0.0023020999999999996
F0.0003909473958559576
tp271
sI80
(F0.0023022999999999997
F0.0003909134343916953
tp272
sI855
(F0.0023022999999999997
F0.0003909134343916953
tp273
sI730
(F0.0023016
F0.00039103232533889464
tp274
sI605
(F0.0023016
F0.00039103232533889464
tp275
sI480
(F0.0023016
F0.00039103232533889464
tp276
sI355
(F0.0023018
F0.0003909983491180815
tp277
sI230
(F0.0023020000000000002
F0.00039096437880104255
tp278
sI105
(F0.0023022999999999997
F0.0003909134343916953
tp279
sI880
(F0.0023032
F0.0003907606807919416
tp280
sI755
(F0.0023016
F0.00039103232533889464
tp281
sI630
(F0.0023016
F0.00039103232533889464
tp282
sI505
(F0.0023016
F0.00039103232533889464
tp283
sI380
(F0.0023018
F0.0003909983491180815
tp284
sI255
(F0.0023020000000000002
F0.00039096437880104255
tp285
ssI815
(dp286
I130
(F0.0053666
F0.00039130920881004733
tp287
sI5
(F0.0053668
F0.0003912946262204666
tp288
sI780
(F0.0053635
F0.0003915353780180852
tp289
sI655
(F0.0053661
F0.00039134567003969357
tp290
sI530
(F0.0053659
F0.000391360256434149
tp291
sI405
(F0.005365999999999999
F0.0003913529631010063
tp292
sI280
(F0.0053662
F0.0003913383772501956
tp293
sI155
(F0.005366500000000001
F0.00039131650051243825
tp294
sI30
(F0.0053669
F0.00039128733533324634
tp295
sI805
(F0.005363000000000001
F0.00037292560134253216
tp296
sI680
(F0.0053663
F0.00039133108473249725
tp297
sI555
(F0.0053659
F0.000391360256434149
tp298
sI430
(F0.005365999999999999
F0.0003913529631010063
tp299
sI305
(F0.0053662
F0.0003913383772501956
tp300
sI180
(F0.005366500000000001
F0.00039131650051243825
tp301
sI55
(F0.0053668
F0.0003912946262204666
tp302
sI705
(F0.0053666
F0.00039130920881004733
tp303
sI580
(F0.0053659
F0.000391360256434149
tp304
sI455
(F0.0053659
F0.000391360256434149
tp305
sI330
(F0.0053661
F0.00039134567003969357
tp306
sI205
(F0.0053663999999999995
F0.0003913237924865832
tp307
sI80
(F0.005366699999999999
F0.00039130191737939515
tp308
sI730
(F0.0053673
F0.0003912581745011458
tp309
sI605
(F0.005365999999999999
F0.0003913529631010063
tp310
sI480
(F0.0053659
F0.000391360256434149
tp311
sI355
(F0.0053661
F0.00039134567003969357
tp312
sI230
(F0.0053663
F0.00039133108473249725
tp313
sI105
(F0.0053666
F0.00039130920881004733
tp314
sI755
(F0.0053579
F0.00039194460516247035
tp315
sI630
(F0.005365999999999999
F0.0003913529631010063
tp316
sI505
(F0.0053659
F0.000391360256434149
tp317
sI380
(F0.005365999999999999
F0.0003913529631010063
tp318
sI255
(F0.0053663
F0.00039133108473249725
tp319
ssI690
(dp320
I130
(F0.013302099999999999
F0.0003833981100728457
tp321
sI5
(F0.013302300000000001
F0.00038339234568458087
tp322
sI655
(F0.0133095
F0.00038318494308576585
tp323
sI530
(F0.013302
F0.0003834009923319802
tp324
sI405
(F0.0133016
F0.0003834125218018885
tp325
sI280
(F0.0133017
F0.0003834096393694039
tp326
sI155
(F0.013302
F0.0003834009923319802
tp327
sI30
(F0.0133025
F0.00038338658146964857
tp328
sI680
(F0.0133056
F0.0003757816257816258
tp329
sI555
(F0.013302300000000001
F0.00038339234568458087
tp330
sI430
(F0.0133016
F0.0003834125218018885
tp331
sI305
(F0.0133017
F0.0003834096393694039
tp332
sI180
(F0.013302
F0.0003834009923319802
tp333
sI55
(F0.0133024
F0.0003833894635554487
tp334
sI580
(F0.013303
F0.00038337217169059614
tp335
sI455
(F0.0133016
F0.0003834125218018885
tp336
sI330
(F0.0133017
F0.0003834096393694039
tp337
sI205
(F0.0133019
F0.00038340387463445074
tp338
sI80
(F0.013302300000000001
F0.00038339234568458087
tp339
sI605
(F0.0133042
F0.00038333759263991824
tp340
sI480
(F0.0133017
F0.0003834096393694039
tp341
sI355
(F0.0133016
F0.0003834125218018885
tp342
sI230
(F0.0133018
F0.00038340675698025835
tp343
sI105
(F0.013302199999999998
F0.00038339522785704624
tp344
sI630
(F0.0133073
F0.0003832482922906976
tp345
sI505
(F0.0133018
F0.00038340675698025835
tp346
sI380
(F0.0133016
F0.0003834125218018885
tp347
sI255
(F0.0133018
F0.00038340675698025835
tp348
ssI565
(dp349
I130
(F0.0361931
F0.00038405110366340544
tp350
sI5
(F0.036193199999999995
F0.0003840500425494292
tp351
sI530
(F0.0362205
F0.00038376057757347356
tp352
sI405
(F0.036194000000000004
F0.00038404155384870415
tp353
sI280
(F0.036192999999999996
F0.0003840521647832454
tp354
sI155
(F0.0361931
F0.00038405110366340544
tp355
sI30
(F0.036193399999999994
F0.00038404792033906737
tp356
sI555
(F0.036179
F0.0003759086763039332
tp357
sI430
(F0.036194699999999996
F0.00038403412654338894
tp358
sI305
(F0.036192999999999996
F0.0003840521647832454
tp359
sI180
(F0.036192999999999996
F0.0003840521647832454
tp360
sI55
(F0.036193399999999994
F0.00038404792033906737
tp361
sI455
(F0.036196
F0.00038402033373853464
tp362
sI330
(F0.0361931
F0.00038405110366340544
tp363
sI205
(F0.036192999999999996
F0.0003840521647832454
tp364
sI80
(F0.036193199999999995
F0.0003840500425494292
tp365
sI480
(F0.0361986
F0.00038399275110087127
tp366
sI355
(F0.0361933
F0.00038404898144131646
tp367
sI230
(F0.036192999999999996
F0.0003840521647832454
tp368
sI105
(F0.036193199999999995
F0.0003840500425494292
tp369
sI505
(F0.0362052
F0.0003839227514279717
tp370
sI380
(F0.0361935
F0.00038404685924268165
tp371
sI255
(F0.036192999999999996
F0.0003840521647832454
tp372
ssI440
(dp373
I130
(F0.1142063
F0.00037913845383310727
tp374
sI355
(F0.1142209
F0.00037908999141137914
tp375
sI5
(F0.11410509999999999
F0.0003794747123485278
tp376
sI230
(F0.11420749999999999
F0.00037913447015301097
tp377
sI105
(F0.1142062
F0.0003791387858102275
tp378
sI330
(F0.1142145
F0.0003791112336874915
tp379
sI205
(F0.11420699999999999
F0.00037913613000954406
tp380
sI430
(F0.114172
F0.00037487299863364046
tp381
sI80
(F0.114206
F0.00037826383902772186
tp382
sI305
(F0.1141112
F0.0003794544269098914
tp383
sI180
(F0.1142067
F0.00037913712593044016
tp384
sI405
(F0.11409820000000001
F0.00037862122277126193
tp385
sI55
(F0.1142059
F0.0003782641702398913
tp386
sI280
(F0.1142094
F0.0003791281628307302
tp387
sI155
(F0.1142065
F0.000379137789880611
tp388
sI380
(F0.1142369
F0.00037903689613426133
tp389
sI30
(F0.1142057
F0.00037914044570454893
tp390
sI255
(F0.11420820000000001
F0.00037913214637828104
tp391
ssI315
(dp392
I130
(F0.4670278
F0.00037342530787246497
tp393
sI5
(F0.4670143
F0.00037343610249193654
tp394
sI230
(F0.4640695
F0.0003753748091611278
tp395
sI105
(F0.4670251
F0.00037342746674643394
tp396
sI205
(F0.45814839999999996
F0.0003795713354013678
tp397
sI80
(F0.4640228
F0.0003754125874849253
tp398
sI305
(F0.46379000000000004
F0.0003721511891157636
tp399
sI180
(F0.4640378
F0.0003754004522907401
tp400
sI55
(F0.4640205
F0.0003754144482840736
tp401
sI280
(F0.466314
F0.000372710233876744
tp402
sI155
(F0.4670317
F0.00037342218954302244
tp403
sI30
(F0.4591185
F0.0003796405503154415
tp404
sI255
(F0.4671204
F0.0003733512815967789
tp405
ssI190
(dp406
I130
(F3.25877
F0.00036823709559128136
tp407
sI5
(F3.2801643
F0.0003671462432537297
tp408
sI105
(F3.2564830000000002
F0.0003695397765012131
tp409
sI80
(F3.256364
F0.00036955328089857274
tp410
sI180
(F3.26171
F0.00036603499391423515
tp411
sI55
(F3.258297
F0.00036819847914416643
tp412
sI155
(F3.256837
F0.00036940749567755465
tp413
sI30
(F3.2582397999999997
F0.0003682049430493115
tp414
ssI965
(dp415
I130
(F0.0019532
F0.0004095842719639566
tp416
sI5
(F0.0019533
F0.00040956330312803975
tp417
sI905
(F0.001954
F0.0004094165813715456
tp418
sI780
(F0.0019524999999999998
F0.0004097311139564661
tp419
sI655
(F0.0019524999999999998
F0.0004097311139564661
tp420
sI530
(F0.0019525999999999999
F0.00040971013008296635
tp421
sI405
(F0.0019527000000000001
F0.00040968914835868284
tp422
sI280
(F0.0019529
F0.00040964719135644427
tp423
sI155
(F0.0019531000000000001
F0.00040960524294710976
tp424
sI30
(F0.0019534
F0.0004095423364390294
tp425
sI930
(F0.0019565
F0.00040889343214924615
tp426
sI805
(F0.0019525999999999999
F0.00040971013008296635
tp427
sI680
(F0.0019524999999999998
F0.0004097311139564661
tp428
sI555
(F0.0019524999999999998
F0.0004097311139564661
tp429
sI430
(F0.0019527000000000001
F0.00040968914835868284
tp430
sI305
(F0.0019528000000000002
F0.00040966816878328555
tp431
sI180
(F0.0019531000000000001
F0.00040960524294710976
tp432
sI55
(F0.0019533
F0.00040956330312803975
tp433
sI955
(F0.0019534
F0.0003583495443841507
tp434
sI830
(F0.0019527000000000001
F0.00040968914835868284
tp435
sI705
(F0.0019524999999999998
F0.0004097311139564661
tp436
sI580
(F0.0019524999999999998
F0.0004097311139564661
tp437
sI455
(F0.0019525999999999999
F0.00040971013008296635
tp438
sI330
(F0.0019528000000000002
F0.00040966816878328555
tp439
sI205
(F0.001953
F0.000409626216077829
tp440
sI80
(F0.0019533
F0.00040956330312803975
tp441
sI855
(F0.0019528000000000002
F0.00040966816878328555
tp442
sI730
(F0.0019524999999999998
F0.0004097311139564661
tp443
sI605
(F0.0019524999999999998
F0.0004097311139564661
tp444
sI480
(F0.0019525999999999999
F0.00040971013008296635
tp445
sI355
(F0.0019528000000000002
F0.00040966816878328555
tp446
sI230
(F0.001953
F0.000409626216077829
tp447
sI105
(F0.0019532
F0.0004095842719639566
tp448
sI880
(F0.0019532
F0.0004095842719639566
tp449
sI755
(F0.0019524999999999998
F0.0004097311139564661
tp450
sI630
(F0.0019524999999999998
F0.0004097311139564661
tp451
sI505
(F0.0019525999999999999
F0.00040971013008296635
tp452
sI380
(F0.0019527000000000001
F0.00040968914835868284
tp453
sI255
(F0.0019529
F0.00040964719135644427
tp454
ssI840
(dp455
I130
(F0.0045125
F0.0003988919667590027
tp456
sI5
(F0.0045127
F0.0003988742881201941
tp457
sI780
(F0.004513499999999999
F0.0003988035892323031
tp458
sI655
(F0.0045119
F0.00039894501207916845
tp459
sI530
(F0.0045118
F0.00039895385433751497
tp460
sI405
(F0.0045119
F0.00039894501207916845
tp461
sI280
(F0.0045122
F0.000398918487655689
tp462
sI155
(F0.004512400000000001
F0.00039890080666607567
tp463
sI30
(F0.0045128
F0.00039886544938840625
tp464
sI805
(F0.0045083
F0.00039926358050706474
tp465
sI680
(F0.0045119999999999995
F0.000398936170212766
tp466
sI555
(F0.0045118
F0.00039895385433751497
tp467
sI430
(F0.0045119
F0.00039894501207916845
tp468
sI305
(F0.0045121
F0.0003989273287382815
tp469
sI180
(F0.004512400000000001
F0.00039890080666607567
tp470
sI55
(F0.0045127
F0.0003988742881201941
tp471
sI830
(F0.0045077
F0.00037713246223129314
tp472
sI705
(F0.0045122
F0.000398918487655689
tp473
sI580
(F0.0045118
F0.00039895385433751497
tp474
sI455
(F0.0045119
F0.00039894501207916845
tp475
sI330
(F0.0045121
F0.0003989273287382815
tp476
sI205
(F0.0045122999999999995
F0.0003989096469649624
tp477
sI80
(F0.0045126
F0.00039888312724371757
tp478
sI730
(F0.004512400000000001
F0.00039890080666607567
tp479
sI605
(F0.0045118
F0.00039895385433751497
tp480
sI480
(F0.0045119
F0.00039894501207916845
tp481
sI355
(F0.0045119999999999995
F0.000398936170212766
tp482
sI230
(F0.0045122999999999995
F0.0003989096469649624
tp483
sI105
(F0.0045126
F0.00039888312724371757
tp484
sI755
(F0.004513
F0.00039884777309993354
tp485
sI630
(F0.0045119
F0.00039894501207916845
tp486
sI505
(F0.0045118
F0.00039895385433751497
tp487
sI380
(F0.0045119999999999995
F0.000398936170212766
tp488
sI255
(F0.0045122
F0.000398918487655689
tp489
ssI715
(dp490
I130
(F0.011022
F0.00039012883324260567
tp491
sI5
(F0.0110222
F0.0003901217542777304
tp492
sI655
(F0.0110264
F0.0003899731553362838
tp493
sI530
(F0.0110216
F0.0003901429919430936
tp494
sI405
(F0.0110214
F0.0003901500716787341
tp495
sI280
(F0.0110216
F0.0003901429919430936
tp496
sI155
(F0.011021900000000001
F0.0003901323728213829
tp497
sI30
(F0.011022299999999999
F0.0003901182148916288
tp498
sI680
(F0.011027100000000001
F0.00038994839985127545
tp499
sI555
(F0.0110218
F0.0003901359124643887
tp500
sI430
(F0.0110214
F0.0003901500716787341
tp501
sI305
(F0.0110216
F0.0003901429919430936
tp502
sI180
(F0.0110218
F0.0003901359124643887
tp503
sI55
(F0.0110222
F0.0003901217542777304
tp504
sI705
(F0.0110236
F0.000381000762001524
tp505
sI580
(F0.0110221
F0.00039012529372805545
tp506
sI455
(F0.0110214
F0.0003901500716787341
tp507
sI330
(F0.0110215
F0.000390146531778796
tp508
sI205
(F0.0110218
F0.0003901359124643887
tp509
sI80
(F0.0110221
F0.00039012529372805545
tp510
sI605
(F0.0110226
F0.0003901075971186471
tp511
sI480
(F0.0110214
F0.0003901500716787341
tp512
sI355
(F0.0110215
F0.000390146531778796
tp513
sI230
(F0.011021699999999999
F0.0003901394521716251
tp514
sI105
(F0.011022
F0.00039012883324260567
tp515
sI630
(F0.011023699999999999
F0.0003900686702286891
tp516
sI505
(F0.0110215
F0.000390146531778796
tp517
sI380
(F0.0110214
F0.0003901500716787341
tp518
sI255
(F0.011021699999999999
F0.0003901394521716251
tp519
ssI590
(dp520
I130
(F0.0294129
F0.0003841851704524205
tp521
sI5
(F0.029413
F0.0003841838642777003
tp522
sI530
(F0.0293229
F0.0003819540359241412
tp523
sI405
(F0.0294131
F0.0003841825581118617
tp524
sI280
(F0.0294126
F0.00038418908902987153
tp525
sI155
(F0.0294128
F0.0003841864766360224
tp526
sI30
(F0.0294132
F0.00038418125195490457
tp527
sI555
(F0.0293346
F0.00038180169492681
tp528
sI430
(F0.0294134
F0.00038417863966763445
tp529
sI305
(F0.0294126
F0.00038418908902987153
tp530
sI180
(F0.0294127
F0.00038418778282850604
tp531
sI55
(F0.0294131
F0.0003841825581118617
tp532
sI580
(F0.029343
F0.0003782844289949903
tp533
sI455
(F0.029414000000000003
F0.0003841708030189705
tp534
sI330
(F0.0294126
F0.00038418908902987153
tp535
sI205
(F0.0294127
F0.00038418778282850604
tp536
sI80
(F0.029413
F0.0003841838642777003
tp537
sI480
(F0.0294151
F0.00038415643666008274
tp538
sI355
(F0.0294127
F0.00038418778282850604
tp539
sI230
(F0.0294126
F0.00038418908902987153
tp540
sI105
(F0.0294129
F0.0003841851704524205
tp541
sI505
(F0.0293174
F0.0003820256912277351
tp542
sI380
(F0.0294128
F0.0003841864766360224
tp543
sI255
(F0.0294126
F0.00038418908902987153
tp544
ssI465
(dp545
I130
(F0.0894053
F0.00037917215198651533
tp546
sI355
(F0.0894119
F0.00037914416313712153
tp547
sI5
(F0.0894045
F0.00037917554485512476
tp548
sI230
(F0.0894059
F0.00037916960737490477
tp549
sI455
(F0.08945499999999999
F0.0003744899670225253
tp550
sI105
(F0.08940519999999999
F0.00037917257609177096
tp551
sI330
(F0.0894092
F0.0003791556126215199
tp552
sI205
(F0.0894056
F0.0003791708796764408
tp553
sI430
(F0.0894808
F0.0003788522230467318
tp554
sI80
(F0.0894051
F0.00037917300019797527
tp555
sI305
(F0.0894077
F0.0003791619737449906
tp556
sI180
(F0.0894054
F0.0003791717278822085
tp557
sI405
(F0.0894303
F0.000379066155430542
tp558
sI55
(F0.0894051
F0.00037917300019797527
tp559
sI280
(F0.08940680000000001
F0.0003791657905215263
tp560
sI155
(F0.0894053
F0.00037917215198651533
tp561
sI380
(F0.08941719999999999
F0.0003791216902340937
tp562
sI30
(F0.089405
F0.0003791734243051283
tp563
sI255
(F0.0894062
F0.0003791683350819071
tp564
ssI340
(dp565
I130
(F0.3428189
F0.0003733749802009166
tp566
sI5
(F0.3392107
F0.0003767569831965796
tp567
sI230
(F0.3404366
F0.00037569403524767905
tp568
sI105
(F0.3428174
F0.0003733766139058286
tp569
sI330
(F0.342918
F0.0003700593144716813
tp570
sI205
(F0.3416284
F0.0003743833943548019
tp571
sI80
(F0.34281599999999995
F0.00037337813870997856
tp572
sI305
(F0.3418408
F0.00037415077427855307
tp573
sI180
(F0.34532369999999996
F0.0003712458774187813
tp574
sI55
(F0.34281459999999997
F0.0003733796635265826
tp575
sI280
(F0.3416924
F0.0003743132712345958
tp576
sI155
(F0.34042079999999997
F0.0003757114723894663
tp577
sI30
(F0.3416134
F0.00037439983326181
tp578
sI255
(F0.3428526
F0.00037333828006554424
tp579
ssI215
(dp580
I130
(F2.055294
F0.00036987409100595827
tp581
sI5
(F2.0460855
F0.0003717830950857137
tp582
sI105
(F2.0562166000000004
F0.00036980539890593233
tp583
sI205
(F2.05181
F0.0003680165317451421
tp584
sI80
(F2.0561765
F0.00036981261093101684
tp585
sI180
(F2.051185
F0.00037037127319086287
tp586
sI55
(F2.0621482
F0.00036869319091615237
tp587
sI155
(F2.046483
F0.0003717108815465362
tp588
sI30
(F2.0561212999999996
F0.000369822539166342
tp589
ssI990
(dp590
I130
(F0.0016621
F0.00042115396185548405
tp591
sI5
(F0.0016623
F0.0004211032906214281
tp592
sI905
(F0.0016611
F0.00042140750105351877
tp593
sI780
(F0.0016615
F0.0004213060487511285
tp594
sI655
(F0.0016615
F0.0004213060487511285
tp595
sI530
(F0.0016615
F0.0004213060487511285
tp596
sI405
(F0.0016617
F0.0004212553409159295
tp597
sI280
(F0.0016618
F0.0004212299915754002
tp598
sI155
(F0.0016619999999999998
F0.00042117930204572804
tp599
sI30
(F0.0016623
F0.0004211032906214281
tp600
sI930
(F0.0016608
F0.00042148362235067436
tp601
sI805
(F0.0016615
F0.0004213060487511285
tp602
sI680
(F0.0016615
F0.0004213060487511285
tp603
sI555
(F0.0016615
F0.0004213060487511285
tp604
sI430
(F0.0016616
F0.00042128069330765527
tp605
sI305
(F0.0016618
F0.0004212299915754002
tp606
sI180
(F0.0016619999999999998
F0.00042117930204572804
tp607
sI55
(F0.0016623
F0.0004211032906214281
tp608
sI955
(F0.001661
F0.0004214328717639976
tp609
sI830
(F0.0016615
F0.0004213060487511285
tp610
sI705
(F0.0016614
F0.0004213314072469002
tp611
sI580
(F0.0016615
F0.0004213060487511285
tp612
sI455
(F0.0016616
F0.00042128069330765527
tp613
sI330
(F0.0016618
F0.0004212299915754002
tp614
sI205
(F0.0016619999999999998
F0.00042117930204572804
tp615
sI80
(F0.0016622
F0.00042112862471423417
tp616
sI980
(F0.0016603000000000002
F0.0003613804734084201
tp617
sI855
(F0.0016616
F0.00042128069330765527
tp618
sI730
(F0.0016614
F0.0004213314072469002
tp619
sI605
(F0.0016615
F0.0004213060487511285
tp620
sI480
(F0.0016616
F0.00042128069330765527
tp621
sI355
(F0.0016617
F0.0004212553409159295
tp622
sI230
(F0.0016619
F0.0004212046452855166
tp623
sI105
(F0.0016622
F0.00042112862471423417
tp624
sI880
(F0.0016608
F0.00042148362235067436
tp625
sI755
(F0.0016615
F0.0004213060487511285
tp626
sI630
(F0.0016615
F0.0004213060487511285
tp627
sI505
(F0.0016616
F0.00042128069330765527
tp628
sI380
(F0.0016617
F0.0004212553409159295
tp629
sI255
(F0.0016619
F0.0004212046452855166
tp630
ssI865
(dp631
I130
(F0.0037954
F0.00039521526057859514
tp632
sI5
(F0.0037955999999999997
F0.0003951944356623459
tp633
sI780
(F0.0037957999999999998
F0.0003951736129406186
tp634
sI655
(F0.0037948
F0.0003952777484979446
tp635
sI530
(F0.0037948
F0.0003952777484979446
tp636
sI405
(F0.0037949000000000004
F0.00039526733247252893
tp637
sI280
(F0.0037951
F0.00039524650206845666
tp638
sI155
(F0.0037954
F0.00039521526057859514
tp639
sI30
(F0.0037957
F0.00039518402402718863
tp640
sI805
(F0.0037961
F0.00039514238297199756
tp641
sI680
(F0.0037948
F0.0003952777484979446
tp642
sI555
(F0.0037947000000000002
F0.00039528816507233773
tp643
sI430
(F0.0037948
F0.0003952777484979446
tp644
sI305
(F0.0037951
F0.00039524650206845666
tp645
sI180
(F0.0037953
F0.00039522567385977394
tp646
sI55
(F0.0037955999999999997
F0.0003951944356623459
tp647
sI830
(F0.0037903
F0.0003957470384929953
tp648
sI705
(F0.0037949000000000004
F0.00039526733247252893
tp649
sI580
(F0.0037947000000000002
F0.00039528816507233773
tp650
sI455
(F0.0037948
F0.0003952777484979446
tp651
sI330
(F0.0037949999999999998
F0.0003952569169960474
tp652
sI205
(F0.0037952
F0.00039523608768971333
tp653
sI80
(F0.0037955999999999997
F0.0003951944356623459
tp654
sI855
(F0.0037914
F0.0003692567389354856
tp655
sI730
(F0.0037949999999999998
F0.0003952569169960474
tp656
sI605
(F0.0037947000000000002
F0.00039528816507233773
tp657
sI480
(F0.0037948
F0.0003952777484979446
tp658
sI355
(F0.0037949999999999998
F0.0003952569169960474
tp659
sI230
(F0.0037952
F0.00039523608768971333
tp660
sI105
(F0.0037955000000000003
F0.0003952048478461336
tp661
sI755
(F0.0037953
F0.00039522567385977394
tp662
sI630
(F0.0037948
F0.0003952777484979446
tp663
sI505
(F0.0037948
F0.0003952777484979446
tp664
sI380
(F0.0037949000000000004
F0.00039526733247252893
tp665
sI255
(F0.0037951
F0.00039524650206845666
tp666
ssI740
(dp667
I130
(F0.009161899999999999
F0.0003929315971577948
tp668
sI5
(F0.009162100000000001
F0.00039292301983169796
tp669
sI655
(F0.0091632
F0.000392875851231011
tp670
sI530
(F0.0091613
F0.00039295733138310063
tp671
sI405
(F0.0091613
F0.00039295733138310063
tp672
sI280
(F0.0091615
F0.0003929487529334716
tp673
sI155
(F0.0091618
F0.000392935885961274
tp674
sI30
(F0.0091622
F0.0003929187313090742
tp675
sI680
(F0.0091656
F0.00039277297721916735
tp676
sI555
(F0.0091614
F0.00039295304211146766
tp677
sI430
(F0.0091613
F0.00039295733138310063
tp678
sI305
(F0.0091614
F0.00039295304211146766
tp679
sI180
(F0.0091617
F0.0003929401748583778
tp680
sI55
(F0.009162100000000001
F0.00039292301983169796
tp681
sI705
(F0.009165
F0.00039279869067103114
tp682
sI580
(F0.0091616
F0.0003929444638491093
tp683
sI455
(F0.0091612
F0.0003929616207483736
tp684
sI330
(F0.0091614
F0.00039295304211146766
tp685
sI205
(F0.0091617
F0.0003929401748583778
tp686
sI80
(F0.009162
F0.00039292730844793706
tp687
sI730
(F0.009165900000000001
F0.00038185011837353665
tp688
sI605
(F0.0091618
F0.000392935885961274
tp689
sI480
(F0.0091613
F0.00039295733138310063
tp690
sI355
(F0.0091614
F0.00039295304211146766
tp691
sI230
(F0.0091616
F0.0003929444638491093
tp692
sI105
(F0.009161899999999999
F0.0003929315971577948
tp693
sI630
(F0.0091623
F0.0003929144428800629
tp694
sI505
(F0.0091613
F0.00039295733138310063
tp695
sI380
(F0.0091613
F0.00039295733138310063
tp696
sI255
(F0.0091615
F0.0003929487529334716
tp697
ssI615
(dp698
I130
(F0.0238926
F0.0003850564609962917
tp699
sI5
(F0.023892800000000002
F0.0003850532377954865
tp700
sI530
(F0.023896399999999998
F0.00038499522940693996
tp701
sI405
(F0.023892499999999997
F0.00038505807261693
tp702
sI280
(F0.023892299999999998
F0.0003850612958986787
tp703
sI155
(F0.0238926
F0.0003850564609962917
tp704
sI30
(F0.023893
F0.00038505001464864185
tp705
sI555
(F0.023901099999999998
F0.00038491952253243573
tp706
sI430
(F0.023892700000000003
F0.00038505484938914394
tp707
sI305
(F0.023892299999999998
F0.0003850612958986787
tp708
sI180
(F0.023892499999999997
F0.00038505807261693
tp709
sI55
(F0.0238929
F0.00038505162621531915
tp710
sI580
(F0.023909800000000002
F0.0003847794628144108
tp711
sI455
(F0.023893
F0.00038505001464864185
tp712
sI330
(F0.023892299999999998
F0.0003850612958986787
tp713
sI205
(F0.023892399999999998
F0.00038505968425105896
tp714
sI80
(F0.023892800000000002
F0.0003850532377954865
tp715
sI605
(F0.02388
F0.00037688442211055275
tp716
sI480
(F0.023893499999999998
F0.00038504195701759893
tp717
sI355
(F0.023892299999999998
F0.0003850612958986787
tp718
sI230
(F0.023892399999999998
F0.00038505968425105896
tp719
sI105
(F0.023892700000000003
F0.00038505484938914394
tp720
sI505
(F0.0238944
F0.000385027454131512
tp721
sI380
(F0.023892399999999998
F0.00038505968425105896
tp722
sI255
(F0.023892299999999998
F0.0003850612958986787
tp723
ssI490
(dp724
I480
(F0.07048099999999999
F0.00037598785488287623
tp725
sI130
(F0.0705045
F0.0003801175811473027
tp726
sI355
(F0.0705077
F0.0003801003294675617
tp727
sI5
(F0.0705041
F0.000380119737717381
tp728
sI230
(F0.0705047
F0.0003801165028714398
tp729
sI455
(F0.0705673
F0.0003797793028782453
tp730
sI105
(F0.0705045
F0.0003801175811473027
tp731
sI330
(F0.0705065
F0.00038010679866395296
tp732
sI205
(F0.0705046
F0.0003801170420086066
tp733
sI430
(F0.0705252
F0.00038000601203541434
tp734
sI80
(F0.0705045
F0.0003801175811473027
tp735
sI305
(F0.0705057
F0.0003801111115838861
tp736
sI180
(F0.0705046
F0.0003801170420086066
tp737
sI405
(F0.0705143
F0.0003800647528231862
tp738
sI55
(F0.0705045
F0.0003801175811473027
tp739
sI280
(F0.0705052
F0.0003801138072085463
tp740
sI155
(F0.0705045
F0.0003801175811473027
tp741
sI380
(F0.0705099
F0.0003800884698460784
tp742
sI30
(F0.0705045
F0.0003801175811473027
tp743
sI255
(F0.07050490000000001
F0.00038011542460169434
tp744
ssI365
(dp745
I130
(F0.25371340000000003
F0.00037759140825829456
tp746
sI355
(F0.253382
F0.0003737439912858846
tp747
sI5
(F0.2537085
F0.0003775987008712755
tp748
sI230
(F0.2537219
F0.00037757875847532275
tp749
sI105
(F0.2537126
F0.0003775925988697447
tp750
sI330
(F0.25418799999999997
F0.00037649298944088624
tp751
sI205
(F0.2537182
F0.00037758426474726684
tp752
sI80
(F0.2537118
F0.00037759378948870327
tp753
sI305
(F0.2542712
F0.0003759765164123975
tp754
sI180
(F0.25401599999999996
F0.00037674792139077854
tp755
sI55
(F0.254011
F0.00037675533736727934
tp756
sI280
(F0.2525408
F0.0003781567176472079
tp757
sI155
(F0.2540145
F0.00037675014615307393
tp758
sI30
(F0.2526102
F0.00037805282605373814
tp759
sI255
(F0.2526283
F0.0003780257397924144
tp760
ssI240
(dp761
I130
(F1.3511385
F0.0003710204394294145
tp762
sI5
(F1.3450489
F0.00037336932508550433
tp763
sI230
(F1.35058
F0.0003682862177731049
tp764
sI105
(F1.3581113
F0.00036896828706159797
tp765
sI205
(F1.350806
F0.00037081564636224593
tp766
sI80
(F1.3510944
F0.00037103254961311363
tp767
sI180
(F1.3543209999999999
F0.0003697793949883374
tp768
sI55
(F1.3450812
F0.0003733603592110275
tp769
sI155
(F1.3511913
F0.000371005941201664
tp770
sI30
(F1.3510678
F0.0003710398545506006
tp771
ssI115
(dp772
I80
(F20.50217
F0.0003650394080236385
tp773
sI105
(F20.5047
F0.000363067979536399
tp774
sI5
(F20.55302
F0.00036448171606897673
tp775
sI30
(F20.50459
F0.00036510849521985075
tp776
sI55
(F20.54622
F0.00036447093431297826
tp777
ssI1015
(dp778
I130
(F0.001416
F0.000423728813559322
tp779
sI5
(F0.0014161999999999998
F0.00042366897330885467
tp780
sI905
(F0.0014147
F0.00042411818760161157
tp781
sI780
(F0.0014154
F0.0004239084357778719
tp782
sI655
(F0.0014154
F0.0004239084357778719
tp783
sI530
(F0.0014154999999999999
F0.0004238784881667255
tp784
sI405
(F0.0014156
F0.0004238485447866629
tp785
sI280
(F0.0014158
F0.0004237886707162028
tp786
sI155
(F0.001416
F0.000423728813559322
tp787
sI30
(F0.0014163
F0.00042363905952128787
tp788
sI930
(F0.001415
F0.0004240282685512367
tp789
sI805
(F0.0014154
F0.0004239084357778719
tp790
sI680
(F0.0014154
F0.0004239084357778719
tp791
sI555
(F0.0014154999999999999
F0.0004238784881667255
tp792
sI430
(F0.0014156
F0.0004238485447866629
tp793
sI305
(F0.0014158
F0.0004237886707162028
tp794
sI180
(F0.001416
F0.000423728813559322
tp795
sI55
(F0.0014161999999999998
F0.00042366897330885467
tp796
sI955
(F0.0014157
F0.0004238186056367874
tp797
sI830
(F0.0014154
F0.0004239084357778719
tp798
sI705
(F0.0014154
F0.0004239084357778719
tp799
sI580
(F0.0014154999999999999
F0.0004238784881667255
tp800
sI455
(F0.0014156
F0.0004238485447866629
tp801
sI330
(F0.0014157
F0.0004238186056367874
tp802
sI205
(F0.0014158999999999999
F0.000423758740024013
tp803
sI80
(F0.0014161999999999998
F0.00042366897330885467
tp804
sI980
(F0.0014145000000000002
F0.00042417815482502643
tp805
sI855
(F0.0014154999999999999
F0.0004238784881667255
tp806
sI730
(F0.0014154
F0.0004239084357778719
tp807
sI605
(F0.0014154999999999999
F0.0004238784881667255
tp808
sI480
(F0.0014154999999999999
F0.0004238784881667255
tp809
sI355
(F0.0014157
F0.0004238186056367874
tp810
sI230
(F0.0014158999999999999
F0.000423758740024013
tp811
sI105
(F0.0014161
F0.00042369889132123434
tp812
sI1005
(F0.0014151
F0.00035333192000565333
tp813
sI880
(F0.0014146
F0.0004241481690937367
tp814
sI755
(F0.0014154
F0.0004239084357778719
tp815
sI630
(F0.0014154
F0.0004239084357778719
tp816
sI505
(F0.0014154999999999999
F0.0004238784881667255
tp817
sI380
(F0.0014157
F0.0004238186056367874
tp818
sI255
(F0.0014158
F0.0004237886707162028
tp819
ssI890
(dp820
I130
(F0.0032103
F0.00040494657820141415
tp821
sI5
(F0.0032105000000000002
F0.0004049213518143591
tp822
sI780
(F0.0032102
F0.0004049591925736714
tp823
sI655
(F0.0032097000000000002
F0.00040502227622519235
tp824
sI530
(F0.0032097000000000002
F0.00040502227622519235
tp825
sI405
(F0.0032098
F0.00040500965792261196
tp826
sI280
(F0.00321
F0.00040498442367601246
tp827
sI155
(F0.0032103
F0.00040494657820141415
tp828
sI30
(F0.0032106
F0.00040490873979941443
tp829
sI805
(F0.0032106
F0.00040490873979941443
tp830
sI680
(F0.0032097000000000002
F0.00040502227622519235
tp831
sI555
(F0.0032097000000000002
F0.00040502227622519235
tp832
sI430
(F0.0032098
F0.00040500965792261196
tp833
sI305
(F0.00321
F0.00040498442367601246
tp834
sI180
(F0.0032102
F0.0004049591925736714
tp835
sI55
(F0.0032105000000000002
F0.0004049213518143591
tp836
sI830
(F0.0032107999999999998
F0.00040488351812632367
tp837
sI705
(F0.0032097000000000002
F0.00040502227622519235
tp838
sI580
(F0.0032097000000000002
F0.00040502227622519235
tp839
sI455
(F0.0032098
F0.00040500965792261196
tp840
sI330
(F0.0032099000000000003
F0.0004049970404062431
tp841
sI205
(F0.0032102
F0.0004049591925736714
tp842
sI80
(F0.0032105000000000002
F0.0004049213518143591
tp843
sI855
(F0.0032045
F0.00040567951318458417
tp844
sI730
(F0.0032098
F0.00040500965792261196
tp845
sI605
(F0.0032097000000000002
F0.00040502227622519235
tp846
sI480
(F0.0032097000000000002
F0.00040502227622519235
tp847
sI355
(F0.0032099000000000003
F0.0004049970404062431
tp848
sI230
(F0.0032101
F0.0004049718077318463
tp849
sI105
(F0.0032104
F0.0004049339646150012
tp850
sI880
(F0.0032077
F0.0003740998223025844
tp851
sI755
(F0.0032099000000000003
F0.0004049970404062431
tp852
sI630
(F0.0032097000000000002
F0.00040502227622519235
tp853
sI505
(F0.0032097000000000002
F0.00040502227622519235
tp854
sI380
(F0.0032099000000000003
F0.0004049970404062431
tp855
sI255
(F0.0032101
F0.0004049718077318463
tp856
ssI765
(dp857
I130
(F0.0076418
F0.0003925776649480489
tp858
sI5
(F0.007642
F0.00039256739073540955
tp859
sI655
(F0.007642
F0.00039256739073540955
tp860
sI530
(F0.007641200000000001
F0.0003926084908129613
tp861
sI405
(F0.007641200000000001
F0.0003926084908129613
tp862
sI280
(F0.0076414
F0.0003925982149867825
tp863
sI155
(F0.0076417
F0.0003925828022560425
tp864
sI30
(F0.0076421
F0.00039256225383075335
tp865
sI680
(F0.007632900000000001
F0.0003930354124906654
tp866
sI555
(F0.007641200000000001
F0.0003926084908129613
tp867
sI430
(F0.0076411
F0.0003926136289277722
tp868
sI305
(F0.0076413
F0.00039260335283263317
tp869
sI180
(F0.0076416
F0.00039258793969849243
tp870
sI55
(F0.007642
F0.00039256739073540955
tp871
sI705
(F0.007634999999999999
F0.00039292730844793717
tp872
sI580
(F0.0076413
F0.00039260335283263317
tp873
sI455
(F0.0076411
F0.0003926136289277722
tp874
sI330
(F0.0076413
F0.00039260335283263317
tp875
sI205
(F0.0076416
F0.00039258793969849243
tp876
sI80
(F0.0076419
F0.0003925725277745064
tp877
sI730
(F0.0076433
F0.00039250062145931733
tp878
sI605
(F0.0076414
F0.0003925982149867825
tp879
sI480
(F0.0076411
F0.0003926136289277722
tp880
sI355
(F0.0076413
F0.00039260335283263317
tp881
sI230
(F0.0076415
F0.00039259307727540407
tp882
sI105
(F0.0076418
F0.0003925776649480489
tp883
sI755
(F0.0076422999999999994
F0.0003794669144105832
tp884
sI630
(F0.0076416
F0.00039258793969849243
tp885
sI505
(F0.0076411
F0.0003926136289277722
tp886
sI380
(F0.007641200000000001
F0.0003926084908129613
tp887
sI255
(F0.0076414
F0.0003925982149867825
tp888
ss.