(dp0
S'EE'
p1
(dp2
S'm_ll'
p3
(F1.4471320156527208
cnumpy.core.multiarray
scalar
p4
(cnumpy
dtype
p5
(S'f8'
p6
I0
I1
tp7
Rp8
(I3
S'<'
p9
NNNI-1
I-1
I0
tp10
bS'\xc6T\x88\xa5\xde\xc2\xbe?'
p11
tp12
Rp13
tp14
sS'eta1'
p15
(F1.447131135743795
g4
(g8
S'\xfa.\xde\xa9\xde\xc2\xbe?'
p16
tp17
Rp18
tp19
sS'eta2'
p20
(F1.4471311524353994
g4
(g8
S'\x16q\xd9\xa6\xde\xc2\xbe?'
p21
tp22
Rp23
tp24
sS'ht'
p25
(F1.447131479275503
g4
(g8
S'\xb5f?\xc0\xde\xc2\xbe?'
p26
tp27
Rp28
tp29
sS'n_vtx'
p30
(F1.4471308099357432
g4
(g8
S'|\xbfR\xa8\xde\xc2\xbe?'
p31
tp32
Rp33
tp34
sS'met'
p35
(F1.4471309553739278
g4
(g8
S'\xe2A\x1e\xbe\xde\xc2\xbe?'
p36
tp37
Rp38
tp39
sS'phi2'
p40
(F1.447131174249646
g4
(g8
S'\x02\xd2\xdd\xa7\xde\xc2\xbe?'
p41
tp42
Rp43
tp44
sS'phi1'
p45
(F1.4471311887238603
g4
(g8
S'\x85\x10\xf7\xac\xde\xc2\xbe?'
p46
tp47
Rp48
tp49
sS'nElectrons'
p50
(F1.4471308746747023
g4
(g8
S'\x91:\xae\xe6\xde\xc2\xbe?'
p51
tp52
Rp53
tp54
sS'n_jets'
p55
(F1.4471324287358627
g4
(g8
S'kv\x1a\xaa\xde\xc2\xbe?'
p56
tp57
Rp58
tp59
sS'nMuons'
p60
(F1.4471308746747023
g4
(g8
S'\x91:\xae\xe6\xde\xc2\xbe?'
p61
tp62
Rp63
tp64
sS'pt2'
p65
(F1.4471312386805748
g4
(g8
S'[M\xed\xac\xde\xc2\xbe?'
p66
tp67
Rp68
tp69
sS'pt1'
p70
(F1.4471314198785363
g4
(g8
S'`Wp\xaa\xde\xc2\xbe?'
p71
tp72
Rp73
tp74
sS'n_photons'
p75
(F1.4471418474699618
g4
(g8
S'\x01?\x88\xd8\xde\xc2\xbe?'
p76
tp77
Rp78
tp79
ssS'MM'
p80
(dp81
g3
(F1.3461682014379428
g4
(g8
S'\x9ft\xd2@_v\xb5?'
p82
tp83
Rp84
tp85
sg15
(F1.34616758669404
g4
(g8
S'Xy@C_v\xb5?'
p86
tp87
Rp88
tp89
sg20
(F1.346167536246815
g4
(g8
S'\xc0\x87\x0fC_v\xb5?'
p90
tp91
Rp92
tp93
sg25
(F1.3461528602710142
g4
(g8
S'\x16\xc9\xa7X_v\xb5?'
p94
tp95
Rp96
tp97
sg30
(F1.3461676115496337
g4
(g8
S'\xf1D\x13D_v\xb5?'
p98
tp99
Rp100
tp101
sg35
(F1.3461678596321844
g4
(g8
S'\xa0_bL_v\xb5?'
p102
tp103
Rp104
tp105
sg40
(F1.3461675727678202
g4
(g8
S'\x03\x84\xd8A_v\xb5?'
p106
tp107
Rp108
tp109
sg45
(F1.3461675856094866
g4
(g8
S'\n\xfd\xb3<_v\xb5?'
p110
tp111
Rp112
tp113
sg50
(F1.3461599500347936
g4
(g8
S'\xe8\xc2y7_v\xb5?'
p114
tp115
Rp116
tp117
sg55
(F1.3461519469124015
g4
(g8
S'\xc70\xd8[_v\xb5?'
p118
tp119
Rp120
tp121
sg60
(F1.3461599500347936
g4
(g8
S'\xe8\xc2y7_v\xb5?'
p122
tp123
Rp124
tp125
sg65
(F1.3461677544971287
g4
(g8
S'Q\xbb\xf4T_v\xb5?'
p126
tp127
Rp128
tp129
sg70
(F1.346167715735275
g4
(g8
S'\xcb\xe8\x96C_v\xb5?'
p130
tp131
Rp132
tp133
sg75
(F1.3461367779171696
g4
(g8
S'iH\xe9)_v\xb5?'
p134
tp135
Rp136
tp137
ssS'LL'
p138
(dp139
g3
(F1.3759328531557313
g4
(g8
S'\x7f\x91\xd9\x1b\x17\x9d\xb1?'
p140
tp141
Rp142
tp143
sg15
(F1.37593259307712
g4
(g8
S'~\xecJ\x18\x17\x9d\xb1?'
p144
tp145
Rp146
tp147
sg20
(F1.3759326521554855
g4
(g8
S'\x11\xca\x91\x0f\x17\x9d\xb1?'
p148
tp149
Rp150
tp151
sg25
(F1.3759054411728975
g4
(g8
S'\xa9 R\x01\x17\x9d\xb1?'
p152
tp153
Rp154
tp155
sg30
(F1.3759343535107302
g4
(g8
S'bR\x02\x12\x17\x9d\xb1?'
p156
tp157
Rp158
tp159
sg35
(F1.3759321749858577
g4
(g8
S'\xad\xe2U\x16\x17\x9d\xb1?'
p160
tp161
Rp162
tp163
sg40
(F1.375932590341024
g4
(g8
S'\x1c\xc8\xee\x13\x17\x9d\xb1?'
p164
tp165
Rp166
tp167
sg45
(F1.375932596644926
g4
(g8
S'.\xfb\x8e\x14\x17\x9d\xb1?'
p168
tp169
Rp170
tp171
sg50
(F1.3759264340104942
g4
(g8
S'2\xe5v\x14\x17\x9d\xb1?'
p172
tp173
Rp174
tp175
sg55
(F1.3759073565967121
g4
(g8
S'\xa3\x84(\n\x17\x9d\xb1?'
p176
tp177
Rp178
tp179
sg60
(F1.3759264340104942
g4
(g8
S'2\xe5v\x14\x17\x9d\xb1?'
p180
tp181
Rp182
tp183
sg65
(F1.3759330506901275
g4
(g8
S'\x1c\xeb\xe6\x0b\x17\x9d\xb1?'
p184
tp185
Rp186
tp187
sg70
(F1.3759325540281633
g4
(g8
S'8\xb1\t\x16\x17\x9d\xb1?'
p188
tp189
Rp190
tp191
sg75
(F1.3759751874859603
g4
(g8
S'.\xa77\x0c\x17\x9d\xb1?'
p192
tp193
Rp194
tp195
ss.