(dp0
S'EE'
p1
(dp2
S'm_ll'
p3
(F1.7002255065800178
cnumpy.core.multiarray
scalar
p4
(cnumpy
dtype
p5
(S'f8'
p6
I0
I1
tp7
Rp8
(I3
S'<'
p9
NNNI-1
I-1
I0
tp10
bS'\xf2\xe7\\\xf3?\xea\xbe?'
p11
tp12
Rp13
tp14
sS'eta1'
p15
(F1.7002221224202516
g4
(g8
S'\xc4\xab\xaf\xf2?\xea\xbe?'
p16
tp17
Rp18
tp19
sS'eta2'
p20
(F1.700222182439333
g4
(g8
S'(\xbf\xb8\xf2?\xea\xbe?'
p21
tp22
Rp23
tp24
sS'ht'
p25
(F1.70021754344164
g4
(g8
S'!Y\xe2\xf1?\xea\xbe?'
p26
tp27
Rp28
tp29
sS'met'
p30
(F1.7002223326999266
g4
(g8
S'_\xd2\xbe\xf2?\xea\xbe?'
p31
tp32
Rp33
tp34
sS'phi2'
p35
(F1.700222224986892
g4
(g8
S'\xc1\x84\xbc\xf2?\xea\xbe?'
p36
tp37
Rp38
tp39
sS'phi1'
p40
(F1.700222224883333
g4
(g8
S'\xe9\x99\xc4\xf2?\xea\xbe?'
p41
tp42
Rp43
tp44
sS'm_ll2'
p45
(F1.7002221272789686
g4
(g8
S'\x0f\x94\xbb\xf2?\xea\xbe?'
p46
tp47
Rp48
tp49
sS'n_jets'
p50
(F1.7002170383689814
g4
(g8
S'Z\xe8\xca\xf1?\xea\xbe?'
p51
tp52
Rp53
tp54
sS'pt2'
p55
(F1.7002226794559647
g4
(g8
S'sN\xd4\xf2?\xea\xbe?'
p56
tp57
Rp58
tp59
sS'pt1'
p60
(F1.700222455391861
g4
(g8
S'\x1fj\xc5\xf2?\xea\xbe?'
p61
tp62
Rp63
tp64
sS'n_photons'
p65
(F1.7002471803051171
g4
(g8
S'<z\x18\xf7?\xea\xbe?'
p66
tp67
Rp68
tp69
ssS'MM'
p70
(dp71
g3
(F1.362987472293684
g4
(g8
S'O\xa2\x06\xd22U\xb6?'
p72
tp73
Rp74
tp75
sg15
(F1.362987036449791
g4
(g8
S'^\x94\x03\xd22U\xb6?'
p76
tp77
Rp78
tp79
sg20
(F1.3629869638588048
g4
(g8
S'qa\xe2\xd12U\xb6?'
p80
tp81
Rp82
tp83
sg25
(F1.362970423617554
g4
(g8
S'\x83l~\xcf2U\xb6?'
p84
tp85
Rp86
tp87
sg30
(F1.3629871514353198
g4
(g8
S'\x9a\xc7\xe6\xd12U\xb6?'
p88
tp89
Rp90
tp91
sg35
(F1.362987078206961
g4
(g8
S'\x04i\xf2\xd12U\xb6?'
p92
tp93
Rp94
tp95
sg40
(F1.362987067906704
g4
(g8
S'<\x1f\n\xd22U\xb6?'
p96
tp97
Rp98
tp99
sg45
(F1.3629872686509132
g4
(g8
S'u\xb7\x16\xd22U\xb6?'
p100
tp101
Rp102
tp103
sg50
(F1.3629700015828847
g4
(g8
S'\xca\xd1o\xcf2U\xb6?'
p104
tp105
Rp106
tp107
sg55
(F1.3629875943766372
g4
(g8
S'\xef5\x04\xd22U\xb6?'
p108
tp109
Rp110
tp111
sg60
(F1.3629870665942903
g4
(g8
S'+\xa3\xf1\xd12U\xb6?'
p112
tp113
Rp114
tp115
sg65
(F1.3629586200115524
g4
(g8
S"n'\x82\xcd2U\xb6?"
p116
tp117
Rp118
tp119
ssS'LL'
p120
(dp121
g3
(F1.461620893774709
g4
(g8
S'\x97\xe9\x8a\x0e\x84\x1a\xb2?'
p122
tp123
Rp124
tp125
sg15
(F1.4616177495772247
g4
(g8
S'8g*\x0e\x84\x1a\xb2?'
p126
tp127
Rp128
tp129
sg20
(F1.461617834931118
g4
(g8
S'\x8dn;\x0e\x84\x1a\xb2?'
p130
tp131
Rp132
tp133
sg25
(F1.461593992039862
g4
(g8
S'\xf0\xe1v\x0b\x84\x1a\xb2?'
p134
tp135
Rp136
tp137
sg30
(F1.4616172737732576
g4
(g8
S'7\xd3\x12\x0e\x84\x1a\xb2?'
p138
tp139
Rp140
tp141
sg35
(F1.4616177418166632
g4
(g8
S'\x0f\x185\x0e\x84\x1a\xb2?'
p142
tp143
Rp144
tp145
sg40
(F1.4616177669739994
g4
(g8
S'jE7\x0e\x84\x1a\xb2?'
p146
tp147
Rp148
tp149
sg45
(F1.4616187694024239
g4
(g8
S'b\xf1O\x0e\x84\x1a\xb2?'
p150
tp151
Rp152
tp153
sg50
(F1.4615932959298383
g4
(g8
S'\x1c\x87W\x0b\x84\x1a\xb2?'
p154
tp155
Rp156
tp157
sg55
(F1.4616185693892365
g4
(g8
S'GG?\x0e\x84\x1a\xb2?'
p158
tp159
Rp160
tp161
sg60
(F1.4616177519644034
g4
(g8
S'\xb6t1\x0e\x84\x1a\xb2?'
p162
tp163
Rp164
tp165
sg65
(F1.4616458666488343
g4
(g8
S'\xde\xcf[\x11\x84\x1a\xb2?'
p166
tp167
Rp168
tp169
ss.