(dp0
S'EE'
p1
(dp2
S'deltaR2_g1'
p3
(F1.0685542324810713
cnumpy.core.multiarray
scalar
p4
(cnumpy
dtype
p5
(S'f8'
p6
I0
I1
tp7
Rp8
(I3
S'<'
p9
NNNI-1
I-1
I0
tp10
bS'f\x7fl\x9b\xc7Y\x95?'
p11
tp12
Rp13
tp14
sS'm_ll'
p15
(F1.0685542377125115
g4
(g8
S'\xeb\xf3\x92\x9c\xc7Y\x95?'
p16
tp17
Rp18
tp19
sS'eta1'
p20
(F1.06855423397195
g4
(g8
S'G\x97\xb0\x9b\xc7Y\x95?'
p21
tp22
Rp23
tp24
sS'eta2'
p25
(F1.0685542379725905
g4
(g8
S'\x9c\x1b\x8b\x9c\xc7Y\x95?'
p26
tp27
Rp28
tp29
sS'deltaRLL'
p30
(F1.0685542404498474
g4
(g8
S'_\xb2;\x9d\xc7Y\x95?'
p31
tp32
Rp33
tp34
sS'ht'
p35
(F1.0685535278189944
g4
(g8
S'\x02W\xc3\x01\xc7Y\x95?'
p36
tp37
Rp38
tp39
sS'n_vtx'
p40
(F1.068554230028451
g4
(g8
S'\xda\xe2\xc5\x9a\xc7Y\x95?'
p41
tp42
Rp43
tp44
sS'met'
p45
(F1.0685542013375955
g4
(g8
S"'Nw\x94\xc7Y\x95?"
p46
tp47
Rp48
tp49
sS'pt_g1'
p50
(F1.0685542328567412
g4
(g8
S'\x80*a\x9b\xc7Y\x95?'
p51
tp52
Rp53
tp54
sS'phi2'
p55
(F1.0685542248650928
g4
(g8
S'w\xd7\xab\x99\xc7Y\x95?'
p56
tp57
Rp58
tp59
sS'phi1'
p60
(F1.0685542248650928
g4
(g8
S'w\xd7\xab\x99\xc7Y\x95?'
p61
tp62
Rp63
tp64
sS'nElectrons'
p65
(F1.0685509007913694
g4
(g8
S'\x94\x96|\xc7\xc4Y\x95?'
p66
tp67
Rp68
tp69
sS'deltaR1_g1'
p70
(F1.0685542509626318
g4
(g8
S'\xa9\xa6Q\x9f\xc7Y\x95?'
p71
tp72
Rp73
tp74
sS'n_jets'
p75
(F1.0685529485719558
g4
(g8
S'y\xbc/\x84\xc6Y\x95?'
p76
tp77
Rp78
tp79
sS'nMuons'
p80
(F1.0685509010770904
g4
(g8
S'@\xf8s\xc7\xc4Y\x95?'
p81
tp82
Rp83
tp84
sS'pt2'
p85
(F1.068554217036656
g4
(g8
S'0\xdc\r\x98\xc7Y\x95?'
p86
tp87
Rp88
tp89
sS'pt1'
p90
(F1.0685542019625522
g4
(g8
S'\x8eQ\xc0\x94\xc7Y\x95?'
p91
tp92
Rp93
tp94
sS'n_photons'
p95
(F1.0685509298862572
g4
(g8
S'\xdc\xa0\xe2\xcd\xc4Y\x95?'
p96
tp97
Rp98
tp99
ssS'MM'
p100
(dp101
g3
(F1.083573638492811
g4
(g8
S'\xc7\x19\xe6$\xd9\x93\x8d?'
p102
tp103
Rp104
tp105
sg15
(F1.083573478469176
g4
(g8
S"'H3\xf2\xd8\x93\x8d?"
p106
tp107
Rp108
tp109
sg20
(F1.0835736799060276
g4
(g8
S'\x08F\x062\xd9\x93\x8d?'
p110
tp111
Rp112
tp113
sg25
(F1.0835736899912387
g4
(g8
S'\x9cVG5\xd9\x93\x8d?'
p114
tp115
Rp116
tp117
sg30
(F1.0835736967228065
g4
(g8
S'\xd1\xde~7\xd9\x93\x8d?'
p118
tp119
Rp120
tp121
sg35
(F1.0835726442635851
g4
(g8
S'\xed\n\x98\xe8\xd7\x93\x8d?'
p122
tp123
Rp124
tp125
sg40
(F1.0835736798343012
g4
(g8
S'&\xa1:2\xd9\x93\x8d?'
p126
tp127
Rp128
tp129
sg45
(F1.0835736656479955
g4
(g8
S'=\xd4\x9a-\xd9\x93\x8d?'
p130
tp131
Rp132
tp133
sg50
(F1.083573685042523
g4
(g8
S'0p\xa33\xd9\x93\x8d?'
p134
tp135
Rp136
tp137
sg55
(F1.0835736811037142
g4
(g8
S'\x15\x12`2\xd9\x93\x8d?'
p138
tp139
Rp140
tp141
sg60
(F1.0835736811037142
g4
(g8
S'\x15\x12`2\xd9\x93\x8d?'
p142
tp143
Rp144
tp145
sg65
(F1.0835730374396404
g4
(g8
S'\x1f\x1a\xa4f\xd8\x93\x8d?'
p146
tp147
Rp148
tp149
sg70
(F1.0835736425187685
g4
(g8
S'\x03\x88G&\xd9\x93\x8d?'
p150
tp151
Rp152
tp153
sg75
(F1.0835731958932937
g4
(g8
S'?\xd8\xd2\x97\xd8\x93\x8d?'
p154
tp155
Rp156
tp157
sg80
(F1.0835730255208877
g4
(g8
S'\xdd\x89\x02c\xd8\x93\x8d?'
p158
tp159
Rp160
tp161
sg85
(F1.0835736752867795
g4
(g8
S']\xd3\xb10\xd9\x93\x8d?'
p162
tp163
Rp164
tp165
sg90
(F1.0835736720032998
g4
(g8
S'\xb0\xa0\xa1/\xd9\x93\x8d?'
p166
tp167
Rp168
tp169
sg95
(F1.083573028552995
g4
(g8
S'&\xd5Ud\xd8\x93\x8d?'
p170
tp171
Rp172
tp173
ssS'LL'
p174
(dp175
g3
(F1.0791031878413853
g4
(g8
S'\x0e\xb8_\xbewZ\x88?'
p176
tp177
Rp178
tp179
sg15
(F1.0791031511895577
g4
(g8
S'\xe0#\xff\xb4wZ\x88?'
p180
tp181
Rp182
tp183
sg20
(F1.0791032007441432
g4
(g8
S'\xd6\xb6\xea\xc1wZ\x88?'
p184
tp185
Rp186
tp187
sg25
(F1.079103227834128
g4
(g8
S'\x15\x12\xd9\xc8wZ\x88?'
p188
tp189
Rp190
tp191
sg30
(F1.0791032060891816
g4
(g8
S'_\xf3D\xc3wZ\x88?'
p192
tp193
Rp194
tp195
sg35
(F1.0791039873667836
g4
(g8
S'$t\xec\x8cxZ\x88?'
p196
tp197
Rp198
tp199
sg40
(F1.0791028752859821
g4
(g8
S'\x1d\xe9\xd6mwZ\x88?'
p200
tp201
Rp202
tp203
sg45
(F1.0791032246514451
g4
(g8
S'\xa8\xfe\xf4\xc7wZ\x88?'
p204
tp205
Rp206
tp207
sg50
(F1.0791032882128166
g4
(g8
S'\x13\xb1\\\xd8wZ\x88?'
p208
tp209
Rp210
tp211
sg55
(F1.0791032087792471
g4
(g8
S'\x8a\x80\xf2\xc3wZ\x88?'
p212
tp213
Rp214
tp215
sg60
(F1.0791032087792471
g4
(g8
S'\x8a\x80\xf2\xc3wZ\x88?'
p216
tp217
Rp218
tp219
sg65
(F1.0791017655028532
g4
(g8
S'p\xa1,PvZ\x88?'
p220
tp221
Rp222
tp223
sg70
(F1.079103171635526
g4
(g8
S'\x1a]\xf4\xb9wZ\x88?'
p224
tp225
Rp226
tp227
sg75
(F1.0791040921567154
g4
(g8
S'\xe4X\x13\xa8xZ\x88?'
p228
tp229
Rp230
tp231
sg80
(F1.0791017572502972
g4
(g8
S'8}\x1aNvZ\x88?'
p232
tp233
Rp234
tp235
sg85
(F1.079103244309767
g4
(g8
S'.\xe4X\xcdwZ\x88?'
p236
tp237
Rp238
tp239
sg90
(F1.0791032611658355
g4
(g8
S'\r\x02m\xd1wZ\x88?'
p240
tp241
Rp242
tp243
sg95
(F1.0791060253098972
g4
(g8
S'\xce\x9cW\x9czZ\x88?'
p244
tp245
Rp246
tp247
ss.