(dp0
S'EE'
p1
(dp2
S'm_ll'
p3
(F1.0765423900479052
cnumpy.core.multiarray
scalar
p4
(cnumpy
dtype
p5
(S'f8'
p6
I0
I1
tp7
Rp8
(I3
S'<'
p9
NNNI-1
I-1
I0
tp10
bS'V\x9a\xf4\x97\x1e\xe2\x91?'
p11
tp12
Rp13
tp14
sS'eta1'
p15
(F1.0765424492881925
g4
(g8
S'\xca\xc4!\xa3\x1e\xe2\x91?'
p16
tp17
Rp18
tp19
sS'eta2'
p20
(F1.0765424335333622
g4
(g8
S'\xa2\x1e.\xa0\x1e\xe2\x91?'
p21
tp22
Rp23
tp24
sS'ht'
p25
(F1.0765417262722696
g4
(g8
S'SUZ\x1b\x1e\xe2\x91?'
p26
tp27
Rp28
tp29
sS'met'
p30
(F1.0765424133425314
g4
(g8
S'\x93\x8dR\x9c\x1e\xe2\x91?'
p31
tp32
Rp33
tp34
sS'pt_g1'
p35
(F1.0765424240273958
g4
(g8
S'\x19F>\x9e\x1e\xe2\x91?'
p36
tp37
Rp38
tp39
sS'phi2'
p40
(F1.0765424563891062
g4
(g8
S'VNo\xa4\x1e\xe2\x91?'
p41
tp42
Rp43
tp44
sS'phi1'
p45
(F1.0765424563891062
g4
(g8
S'VNo\xa4\x1e\xe2\x91?'
p46
tp47
Rp48
tp49
sS'n_jets'
p50
(F1.0765414300309162
g4
(g8
S'ot\xbf\xe3\x1d\xe2\x91?'
p51
tp52
Rp53
tp54
sS'pt2'
p55
(F1.0765425761211949
g4
(g8
S'\x01M\xd8\xba\x1e\xe2\x91?'
p56
tp57
Rp58
tp59
sS'pt1'
p60
(F1.0765424109823853
g4
(g8
S'\xc1\xd0\xe5\x9b\x1e\xe2\x91?'
p61
tp62
Rp63
tp64
sS'n_photons'
p65
(F1.076542231558096
g4
(g8
S'4\xc3\xb8y\x1e\xe2\x91?'
p66
tp67
Rp68
tp69
ssS'MM'
p70
(dp71
g3
(F1.0848119922544297
g4
(g8
S':\xd5 \xc8u\x94\x88?'
p72
tp73
Rp74
tp75
sg15
(F1.0848118372298674
g4
(g8
S'e\x90u\x9eu\x94\x88?'
p76
tp77
Rp78
tp79
sg20
(F1.0848118757853753
g4
(g8
S'h\t\xe6\xa8u\x94\x88?'
p80
tp81
Rp82
tp83
sg25
(F1.0848129359427698
g4
(g8
S'\xdb6<\xc7v\x94\x88?'
p84
tp85
Rp86
tp87
sg30
(F1.084811885335976
g4
(g8
S'\xbc\xa4\x84\xabu\x94\x88?'
p88
tp89
Rp90
tp91
sg35
(F1.084811938174589
g4
(g8
S'\xba;\xe4\xb9u\x94\x88?'
p92
tp93
Rp94
tp95
sg40
(F1.0848118730278091
g4
(g8
S'j\x97\x12\xa8u\x94\x88?'
p96
tp97
Rp98
tp99
sg45
(F1.0848118730278091
g4
(g8
S'j\x97\x12\xa8u\x94\x88?'
p100
tp101
Rp102
tp103
sg50
(F1.0848135283582023
g4
(g8
S'@\xb6Igw\x94\x88?'
p104
tp105
Rp106
tp107
sg55
(F1.0848117920743885
g4
(g8
S'v`\x19\x92u\x94\x88?'
p108
tp109
Rp110
tp111
sg60
(F1.084811860313035
g4
(g8
S'|\x00\xac\xa4u\x94\x88?'
p112
tp113
Rp114
tp115
sg65
(F1.0848148803378517
g4
(g8
S'\x83\xdeP\xd1x\x94\x88?'
p116
tp117
Rp118
tp119
ssS'LL'
p120
(dp121
g3
(F1.0823607855936392
g4
(g8
S'\xa2\x13\xd2g\xf2H\x84?'
p122
tp123
Rp124
tp125
sg15
(F1.0823604615566749
g4
(g8
S'\xb2\x1a\xb8 \xf2H\x84?'
p126
tp127
Rp128
tp129
sg20
(F1.08236044489883
g4
(g8
S'\xf9\t\x0b\x1d\xf2H\x84?'
p130
tp131
Rp132
tp133
sg25
(F1.0823613976580766
g4
(g8
S'@\xc7\x93\xee\xf2H\x84?'
p134
tp135
Rp136
tp137
sg30
(F1.082360505106955
g4
(g8
S'[.C*\xf2H\x84?'
p138
tp139
Rp140
tp141
sg35
(F1.082360525055303
g4
(g8
S'\xae$\xbc.\xf2H\x84?'
p142
tp143
Rp144
tp145
sg40
(F1.0823604822509993
g4
(g8
S'\xb2\x86S%\xf2H\x84?'
p146
tp147
Rp148
tp149
sg45
(F1.0823604822509993
g4
(g8
S'\xb2\x86S%\xf2H\x84?'
p150
tp151
Rp152
tp153
sg50
(F1.0823606731772613
g4
(g8
S'f\x10\xe7N\xf2H\x84?'
p154
tp155
Rp156
tp157
sg55
(F1.0823604686224235
g4
(g8
S'\xdb\x91A"\xf2H\x84?'
p158
tp159
Rp160
tp161
sg60
(F1.0823605405384062
g4
(g8
S'a\x9e12\xf2H\x84?'
p162
tp163
Rp164
tp165
sg65
(F1.0823647440153477
g4
(g8
S'\xa1\xc7\xb7\xce\xf5H\x84?'
p166
tp167
Rp168
tp169
ss.